
Poly94/firmware/build/test_dhrystone:     file format elf32-littleriscv

SYMBOL TABLE:
04000000 l    d  .init	00000000 .init
04012db0 l    d  .data	00000000 .data
0401374c l    d  .sdata._impure_ptr	00000000 .sdata._impure_ptr
04013750 l    d  .sdata.__malloc_sbrk_base	00000000 .sdata.__malloc_sbrk_base
04013754 l    d  .sdata.__malloc_trim_threshold	00000000 .sdata.__malloc_trim_threshold
04013758 l    d  .bss	00000000 .bss
04015f58 l    d  .sbss.Begin_Time	00000000 .sbss.Begin_Time
04015f5c l    d  .sbss.Bool_Glob	00000000 .sbss.Bool_Glob
04015f60 l    d  .sbss.Ch_1_Glob	00000000 .sbss.Ch_1_Glob
04015f61 l    d  .sbss.Ch_2_Glob	00000000 .sbss.Ch_2_Glob
04015f64 l    d  .sbss.Dhrystones_Per_Second	00000000 .sbss.Dhrystones_Per_Second
04015f68 l    d  .sbss.Done	00000000 .sbss.Done
04015f6c l    d  .sbss.End_Time	00000000 .sbss.End_Time
04015f70 l    d  .sbss.Int_Glob	00000000 .sbss.Int_Glob
04015f74 l    d  .sbss.Microseconds	00000000 .sbss.Microseconds
04015f78 l    d  .sbss.Next_Ptr_Glob	00000000 .sbss.Next_Ptr_Glob
04015f7c l    d  .sbss.Ptr_Glob	00000000 .sbss.Ptr_Glob
04015f80 l    d  .sbss.Reg	00000000 .sbss.Reg
04015f84 l    d  .sbss.User_Time	00000000 .sbss.User_Time
04015f88 l    d  .sbss.__malloc_max_sbrked_mem	00000000 .sbss.__malloc_max_sbrked_mem
04015f8c l    d  .sbss.__malloc_max_total_mem	00000000 .sbss.__malloc_max_total_mem
04015f90 l    d  .sbss.__malloc_top_pad	00000000 .sbss.__malloc_top_pad
04015f94 l    d  .sbss.errno	00000000 .sbss.errno
04015f98 l    d  .sbss.heap_end.0	00000000 .sbss.heap_end.0
00000000 l    d  .comment	00000000 .comment
04000020 l    d  .text	00000000 .text
04012da8 l    d  .srodata.cst8	00000000 .srodata.cst8
00000000 l    df *ABS*	00000000 lib_a-impure.o
04012db0 l     O .data	00000428 impure_data
00000000 l    df *ABS*	00000000 /opt/xpack-riscv-none-embed-gcc-10.2.0-1.2/bin/../lib/gcc/riscv-none-embed/10.2.0/rv32im/ilp32/crtbegin.o
04012d28 l     O .text	00000000 __EH_FRAME_BEGIN__
00000000 l    df *ABS*	00000000 dhrystone.c
00000000 l    df *ABS*	00000000 dhrystone_main.c
00000000 l    df *ABS*	00000000 stdio.c
00000000 l    df *ABS*	00000000 lib_a-vfprintf.o
04003db8 l     F .text	000000c0 __sbprintf
04012510 l     O .text	00000010 blanks.1
04012520 l     O .text	00000010 zeroes.0
00000000 l    df *ABS*	00000000 lib_a-findfp.o
040042b4 l     F .text	00000184 __sinit.part.0
00000000 l    df *ABS*	00000000 lib_a-ldtoa.o
04004958 l     F .text	00000068 eshdn1
040049c0 l     F .text	00000070 eshup1
04004a30 l     F .text	00000098 m16m
04004ac8 l     F .text	000000bc emovo.constprop.0
04004b84 l     F .text	0000017c enormlz
04004d00 l     F .text	00000220 eshift.part.0
04004f20 l     F .text	000000b4 emovi
04004fd4 l     F .text	0000013c ecmp
04005110 l     F .text	00000408 emdnorm
04005518 l     F .text	00000164 eiremain
0400567c l     F .text	000004b4 emul
04005b30 l     F .text	000005a0 ediv
040060d0 l     F .text	00000170 e113toe.isra.0
040125e8 l     O .text	00000022 bmask
0401260c l     O .text	00000104 emtens
04012710 l     O .text	00000014 eone
04012724 l     O .text	00000104 etens
04012828 l     O .text	00000014 ezero
00000000 l    df *ABS*	00000000 lib_a-svfprintf.o
040129b8 l     O .text	00000010 blanks.1
040129c8 l     O .text	00000010 zeroes.0
00000000 l    df *ABS*	00000000 lib_a-vfiprintf.o
0400aee0 l     F .text	000000f4 __sprint_r.part.0
0400c288 l     F .text	000000c0 __sbprintf
04012b44 l     O .text	00000010 blanks.1
04012b54 l     O .text	00000010 zeroes.0
00000000 l    df *ABS*	00000000 lib_a-fclose.o
0400c580 l     F .text	000000c0 _fclose_r.part.0
00000000 l    df *ABS*	00000000 sbrk.o
04015f98 l     O .sbss.heap_end.0	00000004 heap_end.0
00000000 l    df *ABS*	00000000 /opt/xpack-riscv-none-embed-gcc-10.2.0-1.2/bin/../lib/gcc/riscv-none-embed/10.2.0/rv32im/ilp32/crtend.o
04012da0 l     O .text	00000000 __FRAME_END__
04015f74 g     O .sbss.Microseconds	00000004 .hidden Microseconds
0400cd4c g     F .text	00000058 _isatty_r
040012a0 g     F .text	000000b0 strcpy
04011be8 g     F .text	00000014 _getpid
0400cda4 g     F .text	00000064 _lseek_r
04015f64 g     O .sbss.Dhrystones_Per_Second	00000004 .hidden Dhrystones_Per_Second
0400ea18 g     F .text	00000168 .hidden __getf2
040009e4 g     F .text	000004ec .hidden __divdi3
04012db0 g       .data	00000000 __data_start__
0400d9b4 g     F .text	00000060 _kill_r
04000020 g       .init	00000000 __bss_regions_array_end
0400e948 g     F .text	000000d0 .hidden __eqtf2
040010d4 g     F .text	00000050 printf
0400d848 g     F .text	00000078 _wcrtomb_r
04008318 g     F .text	00000068 __sseek
04004438 g     F .text	00000010 __sinit
0400d6c0 g     F .text	00000188 __swbuf_r
04007fe0 g     F .text	00000004 __malloc_unlock
04011478 g     F .text	0000016c .hidden __floatsitf
04000204 g     F .text	00000030 .hidden Proc_3
04015f84 g     O .sbss.User_Time	00000004 .hidden User_Time
0400ce08 g     F .text	00000120 memmove
04015f58 g     O .sbss.Begin_Time	00000004 .hidden Begin_Time
04007fe4 g     F .text	000000a8 _Balloc
0400c574 g     F .text	0000000c __errno
04000020 g     F .text	00000010 .hidden Proc_7
0400c854 g     F .text	00000060 _fstat_r
04015f94 g     O .sbss.errno	00000004 errno
04000000 g       .init	00000000 _boot
04000ed0 g     F .text	00000128 memcpy
040042a8 g     F .text	0000000c _cleanup_r
040084bc g     F .text	00002a24 _svfprintf_r
0400eb80 g     F .text	0000016c .hidden __letf2
04011bd4 g     F .text	00000014 _fstat
0400c3dc g     F .text	00000058 __assert_func
04015f90 g     O .sbss.__malloc_top_pad	00000004 __malloc_top_pad
0400da14 g     F .text	00000004 _getpid_r
04013758 g       .bss	00000000 __bss_start__
040002f8 g     F .text	00000034 .hidden Proc_4
04007538 g     F .text	0000000c _localeconv_r
0400c8b4 g     F .text	00000498 __sfvwrite_r
040080b0 g     F .text	00000058 _sbrk_r
0400cf28 g     F .text	00000064 _read_r
04013820 g     O .bss	00002710 .hidden Arr_2_Glob
0400c640 g     F .text	00000070 _fclose_r
04015f88 g     O .sbss.__malloc_max_sbrked_mem	00000004 __malloc_max_sbrked_mem
0400deb8 g     F .text	00000460 .hidden __umoddi3
04011bfc g     F .text	00000014 _isatty
0400cf8c g     F .text	00000578 _realloc_r
0400da18 g     F .text	000004a0 .hidden __udivdi3
0400c828 g     F .text	0000002c _fputwc_r
0400d8c0 g     F .text	00000018 abort
04011c4c g     F .text	00000038 _sbrk
04015f6c g     O .sbss.End_Time	00000004 .hidden End_Time
04015f78 g     O .sbss.Next_Ptr_Glob	00000004 .hidden Next_Ptr_Glob
04000030 g     F .text	00000068 .hidden Proc_8
0401137c g     F .text	000000fc .hidden __fixtfsi
04000098 g     F .text	00000024 .hidden Func_1
06000000 g       *ABS*	00000000 end
0400000c g       .init	00000000 __data_regions_array_start
0401374c g       .data	00000000 __data_end__
04011b2c g     F .text	00000094 .hidden __clzsi2
04004448 g     F .text	00000004 __sfp_lock_acquire
04007f14 g     F .text	000000c8 memchr
04015f58 g       .bss	00000000 __bss_end__
04004590 g     F .text	00000314 _free_r
04015f80 g     O .sbss.Reg	00000004 .hidden Reg
04007544 g     F .text	0000000c __locale_mb_cur_max
04013750 g     O .sdata.__malloc_sbrk_base	00000004 __malloc_sbrk_base
04011c24 g     F .text	00000014 _lseek
04015f70 g     O .sbss.Int_Glob	00000004 .hidden Int_Glob
0400eb80 g     F .text	0000016c .hidden __lttf2
0400e948 g     F .text	000000d0 .hidden __netf2
0400d504 g     F .text	000001bc __ssprint_r
040074c0 g     F .text	00000078 _ldcheck
04015f60 g     O .sbss.Ch_1_Glob	00000001 .hidden Ch_1_Glob
04008414 g     F .text	000000a8 strncpy
04015f30 g     O .bss	00000028 __malloc_current_mallinfo
04000120 g     F .text	0000000c .hidden Func_3
04000234 g     F .text	000000c4 .hidden Proc_1
04015f61 g     O .sbss.Ch_2_Glob	00000001 .hidden Ch_2_Glob
040115e4 g     F .text	00000234 .hidden __extenddftf2
0400c51c g     F .text	00000058 _close_r
04015f7c g     O .sbss.Ptr_Glob	00000004 .hidden Ptr_Glob
04003e78 g     F .text	0000016c __swsetup_r
04013344 g     O .data	00000408 __malloc_av_
0400e318 g     F .text	00000630 .hidden __muldf3
04008234 g     F .text	0000005c __sread
04007fdc g     F .text	00000004 __malloc_lock
04004248 g     F .text	00000060 _fflush_r
0400c434 g     F .text	000000e8 _calloc_r
04000ff8 g     F .text	000000dc memset
04000344 g     F .text	0000066c .hidden main
04015f8c g     O .sbss.__malloc_max_total_mem	00000004 __malloc_max_total_mem
04008380 g     F .text	00000008 __sclose
040076e0 g     F .text	000007cc _malloc_r
0400c348 g     F .text	00000030 __ascii_wctomb
04004450 g     F .text	00000140 _malloc_trim_r
04001124 g     F .text	0000017c strcmp
0400ecec g     F .text	000010e8 .hidden __multf3
040081b8 g     F .text	0000007c sprintf
04012230 g     O .text	00000100 .hidden __clz_tab
0400c378 g     F .text	00000064 _write_r
0401374c g     O .sdata._impure_ptr	00000004 _impure_ptr
040001d8 g     F .text	0000002c .hidden Proc_2
04003fe4 g     F .text	00000264 __sflush_r
0400ea18 g     F .text	00000168 .hidden __gttf2
04000018 g       .init	00000000 __data_regions_array_end
04007eac g     F .text	00000068 __ascii_mbtowc
040000bc g     F .text	00000064 .hidden Func_2
0400fdd4 g     F .text	000015a8 .hidden __subtf3
04015f68 g     O .sbss.Done	00000004 .hidden Done
0400012c g     F .text	00000084 .hidden Proc_6
06000000 g       .init	00000000 __stack
040009b0 g     F .text	00000034 .hidden _write
0400c6fc g     F .text	0000012c __fputwc
04008290 g     F .text	00000088 __swrite
04013754 g     O .sdata.__malloc_trim_threshold	00000004 __malloc_trim_threshold
0400c6b0 g     F .text	0000004c fiprintf
0400afec g     F .text	0000129c _vfiprintf_r
040048a4 g     F .text	000000b4 _fwalk_reent
04013758 g     O .bss	000000c8 .hidden Arr_1_Glob
04011c10 g     F .text	00000014 _kill
0400444c g     F .text	00000004 __sfp_lock_release
0400032c g     F .text	00000018 .hidden Proc_5
04006240 g     F .text	00001280 _ldtoa_r
04012ba4 g     O .text	00000101 _ctype_
04000018 g       .init	00000000 __bss_regions_array_start
04011c38 g     F .text	00000014 _read
04011c84 g     F .text	00000004 _exit
04007550 g     F .text	00000190 __smakebuf_r
040001b0 g     F .text	00000028 .hidden debug_printf
04008388 g     F .text	0000008c strlen
04015f5c g     O .sbss.Bool_Glob	00000004 .hidden Bool_Glob
0400afd4 g     F .text	00000018 __sprint_r
04001350 g     F .text	00002a68 _vfprintf_r
04008108 g     F .text	000000b0 frexp
040131d8 g     O .data	0000016c __global_locale
04011818 g     F .text	00000314 .hidden __trunctfdf2
0400d8d8 g     F .text	000000dc raise
04011bc0 g     F .text	00000014 _close
0400808c g     F .text	00000024 _Bfree



Disassembly of section .init:

04000000 <_boot>:
 4000000:	02000117          	auipc	sp,0x2000
 4000004:	00010113          	mv	sp,sp
 4000008:	33c0006f          	j	4000344 <main>

0400000c <__data_regions_array_start>:
 400000c:	2db0                	fld	fa2,88(a1)
 400000e:	0401                	addi	s0,s0,0
 4000010:	2db0                	fld	fa2,88(a1)
 4000012:	0401                	addi	s0,s0,0
 4000014:	374c                	fld	fa1,168(a4)
 4000016:	0401                	addi	s0,s0,0

04000018 <__bss_regions_array_start>:
 4000018:	3758                	fld	fa4,168(a4)
 400001a:	0401                	addi	s0,s0,0
 400001c:	5f58                	lw	a4,60(a4)
 400001e:	0401                	addi	s0,s0,0

Disassembly of section .text:

04000020 <Proc_7>:
 4000020:	00250513          	addi	a0,a0,2
 4000024:	00b50533          	add	a0,a0,a1
 4000028:	00a62023          	sw	a0,0(a2)
 400002c:	00008067          	ret

04000030 <Proc_8>:
 4000030:	00560713          	addi	a4,a2,5
 4000034:	00271793          	slli	a5,a4,0x2
 4000038:	00f50533          	add	a0,a0,a5
 400003c:	00d52023          	sw	a3,0(a0)
 4000040:	00d52223          	sw	a3,4(a0)
 4000044:	0c800693          	li	a3,200
 4000048:	02d706b3          	mul	a3,a4,a3
 400004c:	00261613          	slli	a2,a2,0x2
 4000050:	06e52c23          	sw	a4,120(a0)
 4000054:	00c687b3          	add	a5,a3,a2
 4000058:	00f587b3          	add	a5,a1,a5
 400005c:	00e7aa23          	sw	a4,20(a5)
 4000060:	00e7ac23          	sw	a4,24(a5)
 4000064:	0107a703          	lw	a4,16(a5)
 4000068:	00d585b3          	add	a1,a1,a3
 400006c:	00c585b3          	add	a1,a1,a2
 4000070:	00170713          	addi	a4,a4,1
 4000074:	00e7a823          	sw	a4,16(a5)
 4000078:	00052703          	lw	a4,0(a0)
 400007c:	000017b7          	lui	a5,0x1
 4000080:	00b785b3          	add	a1,a5,a1
 4000084:	fae5aa23          	sw	a4,-76(a1)
 4000088:	040167b7          	lui	a5,0x4016
 400008c:	00500713          	li	a4,5
 4000090:	f6e7a823          	sw	a4,-144(a5) # 4015f70 <Int_Glob>
 4000094:	00008067          	ret

04000098 <Func_1>:
 4000098:	0ff57513          	zext.b	a0,a0
 400009c:	0ff5f593          	zext.b	a1,a1
 40000a0:	00b51a63          	bne	a0,a1,40000b4 <Func_1+0x1c>
 40000a4:	040167b7          	lui	a5,0x4016
 40000a8:	f6a78023          	sb	a0,-160(a5) # 4015f60 <Ch_1_Glob>
 40000ac:	00100513          	li	a0,1
 40000b0:	00008067          	ret
 40000b4:	00000513          	li	a0,0
 40000b8:	00008067          	ret

040000bc <Func_2>:
 40000bc:	ff010113          	addi	sp,sp,-16 # 5fffff0 <heap_end.0+0x1fea058>
 40000c0:	00812423          	sw	s0,8(sp)
 40000c4:	00912223          	sw	s1,4(sp)
 40000c8:	00112623          	sw	ra,12(sp)
 40000cc:	00050413          	mv	s0,a0
 40000d0:	00058493          	mv	s1,a1
 40000d4:	0034c583          	lbu	a1,3(s1)
 40000d8:	00244503          	lbu	a0,2(s0)
 40000dc:	fbdff0ef          	jal	ra,4000098 <Func_1>
 40000e0:	fe051ae3          	bnez	a0,40000d4 <Func_2+0x18>
 40000e4:	00048593          	mv	a1,s1
 40000e8:	00040513          	mv	a0,s0
 40000ec:	038010ef          	jal	ra,4001124 <strcmp>
 40000f0:	00000793          	li	a5,0
 40000f4:	00a05a63          	blez	a0,4000108 <Func_2+0x4c>
 40000f8:	040167b7          	lui	a5,0x4016
 40000fc:	00a00713          	li	a4,10
 4000100:	f6e7a823          	sw	a4,-144(a5) # 4015f70 <Int_Glob>
 4000104:	00100793          	li	a5,1
 4000108:	00c12083          	lw	ra,12(sp)
 400010c:	00812403          	lw	s0,8(sp)
 4000110:	00412483          	lw	s1,4(sp)
 4000114:	00078513          	mv	a0,a5
 4000118:	01010113          	addi	sp,sp,16
 400011c:	00008067          	ret

04000120 <Func_3>:
 4000120:	ffe50513          	addi	a0,a0,-2
 4000124:	00153513          	seqz	a0,a0
 4000128:	00008067          	ret

0400012c <Proc_6>:
 400012c:	ff010113          	addi	sp,sp,-16
 4000130:	00812423          	sw	s0,8(sp)
 4000134:	00912223          	sw	s1,4(sp)
 4000138:	00112623          	sw	ra,12(sp)
 400013c:	00050493          	mv	s1,a0
 4000140:	00058413          	mv	s0,a1
 4000144:	fddff0ef          	jal	ra,4000120 <Func_3>
 4000148:	00048793          	mv	a5,s1
 400014c:	00051463          	bnez	a0,4000154 <Proc_6+0x28>
 4000150:	00300793          	li	a5,3
 4000154:	00f42023          	sw	a5,0(s0)
 4000158:	00200793          	li	a5,2
 400015c:	04f48663          	beq	s1,a5,40001a8 <Proc_6+0x7c>
 4000160:	0097e863          	bltu	a5,s1,4000170 <Proc_6+0x44>
 4000164:	02049463          	bnez	s1,400018c <Proc_6+0x60>
 4000168:	00042023          	sw	zero,0(s0)
 400016c:	00c0006f          	j	4000178 <Proc_6+0x4c>
 4000170:	00400713          	li	a4,4
 4000174:	02e48663          	beq	s1,a4,40001a0 <Proc_6+0x74>
 4000178:	00c12083          	lw	ra,12(sp)
 400017c:	00812403          	lw	s0,8(sp)
 4000180:	00412483          	lw	s1,4(sp)
 4000184:	01010113          	addi	sp,sp,16
 4000188:	00008067          	ret
 400018c:	040167b7          	lui	a5,0x4016
 4000190:	f707a703          	lw	a4,-144(a5) # 4015f70 <Int_Glob>
 4000194:	06400793          	li	a5,100
 4000198:	fce7c8e3          	blt	a5,a4,4000168 <Proc_6+0x3c>
 400019c:	00300793          	li	a5,3
 40001a0:	00f42023          	sw	a5,0(s0)
 40001a4:	fd5ff06f          	j	4000178 <Proc_6+0x4c>
 40001a8:	00100793          	li	a5,1
 40001ac:	ff5ff06f          	j	40001a0 <Proc_6+0x74>

040001b0 <debug_printf>:
 40001b0:	fe010113          	addi	sp,sp,-32
 40001b4:	00b12223          	sw	a1,4(sp)
 40001b8:	00c12423          	sw	a2,8(sp)
 40001bc:	00d12623          	sw	a3,12(sp)
 40001c0:	00e12823          	sw	a4,16(sp)
 40001c4:	00f12a23          	sw	a5,20(sp)
 40001c8:	01012c23          	sw	a6,24(sp)
 40001cc:	01112e23          	sw	a7,28(sp)
 40001d0:	02010113          	addi	sp,sp,32
 40001d4:	00008067          	ret

040001d8 <Proc_2>:
 40001d8:	040167b7          	lui	a5,0x4016
 40001dc:	f607c703          	lbu	a4,-160(a5) # 4015f60 <Ch_1_Glob>
 40001e0:	04100793          	li	a5,65
 40001e4:	00f71e63          	bne	a4,a5,4000200 <Proc_2+0x28>
 40001e8:	00052783          	lw	a5,0(a0)
 40001ec:	04016737          	lui	a4,0x4016
 40001f0:	f7072703          	lw	a4,-144(a4) # 4015f70 <Int_Glob>
 40001f4:	00978793          	addi	a5,a5,9
 40001f8:	40e787b3          	sub	a5,a5,a4
 40001fc:	00f52023          	sw	a5,0(a0)
 4000200:	00008067          	ret

04000204 <Proc_3>:
 4000204:	040167b7          	lui	a5,0x4016
 4000208:	f7c7a703          	lw	a4,-132(a5) # 4015f7c <Ptr_Glob>
 400020c:	f7c78793          	addi	a5,a5,-132
 4000210:	00070663          	beqz	a4,400021c <Proc_3+0x18>
 4000214:	00072703          	lw	a4,0(a4)
 4000218:	00e52023          	sw	a4,0(a0)
 400021c:	0007a603          	lw	a2,0(a5)
 4000220:	040167b7          	lui	a5,0x4016
 4000224:	f707a583          	lw	a1,-144(a5) # 4015f70 <Int_Glob>
 4000228:	00c60613          	addi	a2,a2,12
 400022c:	00a00513          	li	a0,10
 4000230:	df1ff06f          	j	4000020 <Proc_7>

04000234 <Proc_1>:
 4000234:	ff010113          	addi	sp,sp,-16
 4000238:	01212023          	sw	s2,0(sp)
 400023c:	04016937          	lui	s2,0x4016
 4000240:	00812423          	sw	s0,8(sp)
 4000244:	f7c90913          	addi	s2,s2,-132 # 4015f7c <Ptr_Glob>
 4000248:	00052403          	lw	s0,0(a0)
 400024c:	00092583          	lw	a1,0(s2)
 4000250:	00912223          	sw	s1,4(sp)
 4000254:	03000613          	li	a2,48
 4000258:	00050493          	mv	s1,a0
 400025c:	00040513          	mv	a0,s0
 4000260:	00112623          	sw	ra,12(sp)
 4000264:	46d000ef          	jal	ra,4000ed0 <memcpy>
 4000268:	00500793          	li	a5,5
 400026c:	00f4a623          	sw	a5,12(s1)
 4000270:	00f42623          	sw	a5,12(s0)
 4000274:	0004a783          	lw	a5,0(s1)
 4000278:	00040513          	mv	a0,s0
 400027c:	00f42023          	sw	a5,0(s0)
 4000280:	f85ff0ef          	jal	ra,4000204 <Proc_3>
 4000284:	00442783          	lw	a5,4(s0)
 4000288:	04079463          	bnez	a5,40002d0 <Proc_1+0x9c>
 400028c:	0084a503          	lw	a0,8(s1)
 4000290:	00600793          	li	a5,6
 4000294:	00f42623          	sw	a5,12(s0)
 4000298:	00840593          	addi	a1,s0,8
 400029c:	e91ff0ef          	jal	ra,400012c <Proc_6>
 40002a0:	00092783          	lw	a5,0(s2)
 40002a4:	00c42503          	lw	a0,12(s0)
 40002a8:	00c40613          	addi	a2,s0,12
 40002ac:	0007a783          	lw	a5,0(a5)
 40002b0:	00c12083          	lw	ra,12(sp)
 40002b4:	00412483          	lw	s1,4(sp)
 40002b8:	00f42023          	sw	a5,0(s0)
 40002bc:	00812403          	lw	s0,8(sp)
 40002c0:	00012903          	lw	s2,0(sp)
 40002c4:	00a00593          	li	a1,10
 40002c8:	01010113          	addi	sp,sp,16
 40002cc:	d55ff06f          	j	4000020 <Proc_7>
 40002d0:	0004a583          	lw	a1,0(s1)
 40002d4:	00048513          	mv	a0,s1
 40002d8:	03000613          	li	a2,48
 40002dc:	3f5000ef          	jal	ra,4000ed0 <memcpy>
 40002e0:	00c12083          	lw	ra,12(sp)
 40002e4:	00812403          	lw	s0,8(sp)
 40002e8:	00412483          	lw	s1,4(sp)
 40002ec:	00012903          	lw	s2,0(sp)
 40002f0:	01010113          	addi	sp,sp,16
 40002f4:	00008067          	ret

040002f8 <Proc_4>:
 40002f8:	040167b7          	lui	a5,0x4016
 40002fc:	f607c783          	lbu	a5,-160(a5) # 4015f60 <Ch_1_Glob>
 4000300:	04016737          	lui	a4,0x4016
 4000304:	f5c70713          	addi	a4,a4,-164 # 4015f5c <Bool_Glob>
 4000308:	00072683          	lw	a3,0(a4)
 400030c:	fbf78793          	addi	a5,a5,-65
 4000310:	0017b793          	seqz	a5,a5
 4000314:	00d7e7b3          	or	a5,a5,a3
 4000318:	00f72023          	sw	a5,0(a4)
 400031c:	040167b7          	lui	a5,0x4016
 4000320:	04200713          	li	a4,66
 4000324:	f6e780a3          	sb	a4,-159(a5) # 4015f61 <Ch_2_Glob>
 4000328:	00008067          	ret

0400032c <Proc_5>:
 400032c:	040167b7          	lui	a5,0x4016
 4000330:	04100713          	li	a4,65
 4000334:	f6e78023          	sb	a4,-160(a5) # 4015f60 <Ch_1_Glob>
 4000338:	040167b7          	lui	a5,0x4016
 400033c:	f407ae23          	sw	zero,-164(a5) # 4015f5c <Bool_Glob>
 4000340:	00008067          	ret

04000344 <main>:
 4000344:	f6010113          	addi	sp,sp,-160
 4000348:	08112e23          	sw	ra,156(sp)
 400034c:	08812c23          	sw	s0,152(sp)
 4000350:	08912a23          	sw	s1,148(sp)
 4000354:	09212823          	sw	s2,144(sp)
 4000358:	09412423          	sw	s4,136(sp)
 400035c:	09612023          	sw	s6,128(sp)
 4000360:	09312623          	sw	s3,140(sp)
 4000364:	09512223          	sw	s5,132(sp)
 4000368:	07712e23          	sw	s7,124(sp)
 400036c:	07812c23          	sw	s8,120(sp)
 4000370:	07912a23          	sw	s9,116(sp)
 4000374:	07a12823          	sw	s10,112(sp)
 4000378:	07b12623          	sw	s11,108(sp)
 400037c:	0a010413          	addi	s0,sp,160
 4000380:	fc010113          	addi	sp,sp,-64
 4000384:	00f10793          	addi	a5,sp,15
 4000388:	fc010113          	addi	sp,sp,-64
 400038c:	00f10513          	addi	a0,sp,15
 4000390:	ff057513          	andi	a0,a0,-16
 4000394:	ff07f793          	andi	a5,a5,-16
 4000398:	04016937          	lui	s2,0x4016
 400039c:	f6f92c23          	sw	a5,-136(s2) # 4015f78 <Next_Ptr_Glob>
 40003a0:	00f52023          	sw	a5,0(a0)
 40003a4:	00200793          	li	a5,2
 40003a8:	00f52423          	sw	a5,8(a0)
 40003ac:	040164b7          	lui	s1,0x4016
 40003b0:	02800793          	li	a5,40
 40003b4:	040125b7          	lui	a1,0x4012
 40003b8:	00f52623          	sw	a5,12(a0)
 40003bc:	f6a4ae23          	sw	a0,-132(s1) # 4015f7c <Ptr_Glob>
 40003c0:	00052223          	sw	zero,4(a0)
 40003c4:	c8858593          	addi	a1,a1,-888 # 4011c88 <_exit+0x4>
 40003c8:	01050513          	addi	a0,a0,16
 40003cc:	6d5000ef          	jal	ra,40012a0 <strcpy>
 40003d0:	040125b7          	lui	a1,0x4012
 40003d4:	ca858593          	addi	a1,a1,-856 # 4011ca8 <_exit+0x24>
 40003d8:	f8040513          	addi	a0,s0,-128
 40003dc:	6c5000ef          	jal	ra,40012a0 <strcpy>
 40003e0:	04014b37          	lui	s6,0x4014
 40003e4:	820b0793          	addi	a5,s6,-2016 # 4013820 <Arr_2_Glob>
 40003e8:	00a00713          	li	a4,10
 40003ec:	04012a37          	lui	s4,0x4012
 40003f0:	64e7ae23          	sw	a4,1628(a5)
 40003f4:	f54a0513          	addi	a0,s4,-172 # 4011f54 <_exit+0x2d0>
 40003f8:	db9ff0ef          	jal	ra,40001b0 <debug_printf>
 40003fc:	040125b7          	lui	a1,0x4012
 4000400:	04012537          	lui	a0,0x4012
 4000404:	cc858593          	addi	a1,a1,-824 # 4011cc8 <_exit+0x44>
 4000408:	cd850513          	addi	a0,a0,-808 # 4011cd8 <_exit+0x54>
 400040c:	da5ff0ef          	jal	ra,40001b0 <debug_printf>
 4000410:	040167b7          	lui	a5,0x4016
 4000414:	f807a783          	lw	a5,-128(a5) # 4015f80 <Reg>
 4000418:	f7890913          	addi	s2,s2,-136
 400041c:	f7c48493          	addi	s1,s1,-132
 4000420:	50078063          	beqz	a5,4000920 <main+0x5dc>
 4000424:	04012537          	lui	a0,0x4012
 4000428:	cfc50513          	addi	a0,a0,-772 # 4011cfc <_exit+0x78>
 400042c:	d85ff0ef          	jal	ra,40001b0 <debug_printf>
 4000430:	017d8637          	lui	a2,0x17d8
 4000434:	040125b7          	lui	a1,0x4012
 4000438:	04012537          	lui	a0,0x4012
 400043c:	84060613          	addi	a2,a2,-1984 # 17d7840 <_boot-0x28287c0>
 4000440:	d5858593          	addi	a1,a1,-680 # 4011d58 <_exit+0xd4>
 4000444:	d6450513          	addi	a0,a0,-668 # 4011d64 <_exit+0xe0>
 4000448:	d69ff0ef          	jal	ra,40001b0 <debug_printf>
 400044c:	04016ab7          	lui	s5,0x4016
 4000450:	f54a0513          	addi	a0,s4,-172
 4000454:	d5dff0ef          	jal	ra,40001b0 <debug_printf>
 4000458:	3e800993          	li	s3,1000
 400045c:	f60aa423          	sw	zero,-152(s5) # 4015f68 <Done>
 4000460:	04016cb7          	lui	s9,0x4016
 4000464:	f68a8a93          	addi	s5,s5,-152
 4000468:	04013d37          	lui	s10,0x4013
 400046c:	040127b7          	lui	a5,0x4012
 4000470:	00098593          	mv	a1,s3
 4000474:	d7878513          	addi	a0,a5,-648 # 4011d78 <_exit+0xf4>
 4000478:	d39ff0ef          	jal	ra,40001b0 <debug_printf>
 400047c:	c00027f3          	rdcycle	a5
 4000480:	00100b93          	li	s7,1
 4000484:	f4fcac23          	sw	a5,-168(s9) # 4015f58 <Begin_Time>
 4000488:	04016db7          	lui	s11,0x4016
 400048c:	ea1ff0ef          	jal	ra,400032c <Proc_5>
 4000490:	e69ff0ef          	jal	ra,40002f8 <Proc_4>
 4000494:	00200793          	li	a5,2
 4000498:	f6f42a23          	sw	a5,-140(s0)
 400049c:	040127b7          	lui	a5,0x4012
 40004a0:	d9c78593          	addi	a1,a5,-612 # 4011d9c <_exit+0x118>
 40004a4:	fa040513          	addi	a0,s0,-96
 40004a8:	5f9000ef          	jal	ra,40012a0 <strcpy>
 40004ac:	00100793          	li	a5,1
 40004b0:	fa040593          	addi	a1,s0,-96
 40004b4:	f8040513          	addi	a0,s0,-128
 40004b8:	f6f42e23          	sw	a5,-132(s0)
 40004bc:	c01ff0ef          	jal	ra,40000bc <Func_2>
 40004c0:	00153513          	seqz	a0,a0
 40004c4:	f4adae23          	sw	a0,-164(s11) # 4015f5c <Bool_Glob>
 40004c8:	00200c13          	li	s8,2
 40004cc:	f7442503          	lw	a0,-140(s0)
 40004d0:	00500713          	li	a4,5
 40004d4:	44ac5c63          	bge	s8,a0,400092c <main+0x5e8>
 40004d8:	f7842683          	lw	a3,-136(s0)
 40004dc:	00050613          	mv	a2,a0
 40004e0:	820b0593          	addi	a1,s6,-2016
 40004e4:	758d0513          	addi	a0,s10,1880 # 4013758 <Arr_1_Glob>
 40004e8:	b49ff0ef          	jal	ra,4000030 <Proc_8>
 40004ec:	0004a503          	lw	a0,0(s1)
 40004f0:	04100c13          	li	s8,65
 40004f4:	d41ff0ef          	jal	ra,4000234 <Proc_1>
 40004f8:	00300713          	li	a4,3
 40004fc:	040167b7          	lui	a5,0x4016
 4000500:	f617c683          	lbu	a3,-159(a5) # 4015f61 <Ch_2_Glob>
 4000504:	4586f863          	bgeu	a3,s8,4000954 <main+0x610>
 4000508:	f7442583          	lw	a1,-140(s0)
 400050c:	f7440513          	addi	a0,s0,-140
 4000510:	001b8b93          	addi	s7,s7,1
 4000514:	02b707b3          	mul	a5,a4,a1
 4000518:	f6f42423          	sw	a5,-152(s0)
 400051c:	f7842783          	lw	a5,-136(s0)
 4000520:	f6f42623          	sw	a5,-148(s0)
 4000524:	f6c42703          	lw	a4,-148(s0)
 4000528:	f6842783          	lw	a5,-152(s0)
 400052c:	02e7cc33          	div	s8,a5,a4
 4000530:	f7842a23          	sw	s8,-140(s0)
 4000534:	ca5ff0ef          	jal	ra,40001d8 <Proc_2>
 4000538:	f579dae3          	bge	s3,s7,400048c <main+0x148>
 400053c:	c00027f3          	rdcycle	a5
 4000540:	04016737          	lui	a4,0x4016
 4000544:	f6f72623          	sw	a5,-148(a4) # 4015f6c <End_Time>
 4000548:	04016737          	lui	a4,0x4016
 400054c:	f5870713          	addi	a4,a4,-168 # 4015f58 <Begin_Time>
 4000550:	00072703          	lw	a4,0(a4)
 4000554:	04016bb7          	lui	s7,0x4016
 4000558:	40e787b3          	sub	a5,a5,a4
 400055c:	f8fba223          	sw	a5,-124(s7) # 4015f84 <User_Time>
 4000560:	f84b8b93          	addi	s7,s7,-124
 4000564:	44f04063          	bgtz	a5,40009a4 <main+0x660>
 4000568:	04012537          	lui	a0,0x4012
 400056c:	ddc50513          	addi	a0,a0,-548 # 4011ddc <_exit+0x158>
 4000570:	365000ef          	jal	ra,40010d4 <printf>
 4000574:	00a00793          	li	a5,10
 4000578:	f54a0513          	addi	a0,s4,-172
 400057c:	02f989b3          	mul	s3,s3,a5
 4000580:	355000ef          	jal	ra,40010d4 <printf>
 4000584:	000aa783          	lw	a5,0(s5)
 4000588:	ee0782e3          	beqz	a5,400046c <main+0x128>
 400058c:	04012537          	lui	a0,0x4012
 4000590:	e1450513          	addi	a0,a0,-492 # 4011e14 <_exit+0x190>
 4000594:	c1dff0ef          	jal	ra,40001b0 <debug_printf>
 4000598:	f54a0513          	addi	a0,s4,-172
 400059c:	c15ff0ef          	jal	ra,40001b0 <debug_printf>
 40005a0:	040167b7          	lui	a5,0x4016
 40005a4:	f707a583          	lw	a1,-144(a5) # 4015f70 <Int_Glob>
 40005a8:	04012537          	lui	a0,0x4012
 40005ac:	e4c50513          	addi	a0,a0,-436 # 4011e4c <_exit+0x1c8>
 40005b0:	04012ab7          	lui	s5,0x4012
 40005b4:	bfdff0ef          	jal	ra,40001b0 <debug_printf>
 40005b8:	e68a8513          	addi	a0,s5,-408 # 4011e68 <_exit+0x1e4>
 40005bc:	00500593          	li	a1,5
 40005c0:	bf1ff0ef          	jal	ra,40001b0 <debug_printf>
 40005c4:	040167b7          	lui	a5,0x4016
 40005c8:	f5c78793          	addi	a5,a5,-164 # 4015f5c <Bool_Glob>
 40005cc:	0007a583          	lw	a1,0(a5)
 40005d0:	04012537          	lui	a0,0x4012
 40005d4:	e8450513          	addi	a0,a0,-380 # 4011e84 <_exit+0x200>
 40005d8:	bd9ff0ef          	jal	ra,40001b0 <debug_printf>
 40005dc:	e68a8513          	addi	a0,s5,-408
 40005e0:	00100593          	li	a1,1
 40005e4:	bcdff0ef          	jal	ra,40001b0 <debug_printf>
 40005e8:	040167b7          	lui	a5,0x4016
 40005ec:	f607c583          	lbu	a1,-160(a5) # 4015f60 <Ch_1_Glob>
 40005f0:	04012537          	lui	a0,0x4012
 40005f4:	ea050513          	addi	a0,a0,-352 # 4011ea0 <_exit+0x21c>
 40005f8:	bb9ff0ef          	jal	ra,40001b0 <debug_printf>
 40005fc:	04012b37          	lui	s6,0x4012
 4000600:	ebcb0513          	addi	a0,s6,-324 # 4011ebc <_exit+0x238>
 4000604:	04100593          	li	a1,65
 4000608:	ba9ff0ef          	jal	ra,40001b0 <debug_printf>
 400060c:	040167b7          	lui	a5,0x4016
 4000610:	f6178793          	addi	a5,a5,-159 # 4015f61 <Ch_2_Glob>
 4000614:	0007c583          	lbu	a1,0(a5)
 4000618:	04012537          	lui	a0,0x4012
 400061c:	ed850513          	addi	a0,a0,-296 # 4011ed8 <_exit+0x254>
 4000620:	b91ff0ef          	jal	ra,40001b0 <debug_printf>
 4000624:	ebcb0513          	addi	a0,s6,-324
 4000628:	04200593          	li	a1,66
 400062c:	b85ff0ef          	jal	ra,40001b0 <debug_printf>
 4000630:	040137b7          	lui	a5,0x4013
 4000634:	75878793          	addi	a5,a5,1880 # 4013758 <Arr_1_Glob>
 4000638:	0207a583          	lw	a1,32(a5)
 400063c:	04012537          	lui	a0,0x4012
 4000640:	ef450513          	addi	a0,a0,-268 # 4011ef4 <_exit+0x270>
 4000644:	b6dff0ef          	jal	ra,40001b0 <debug_printf>
 4000648:	e68a8513          	addi	a0,s5,-408
 400064c:	00700593          	li	a1,7
 4000650:	b61ff0ef          	jal	ra,40001b0 <debug_printf>
 4000654:	040147b7          	lui	a5,0x4014
 4000658:	82078793          	addi	a5,a5,-2016 # 4013820 <Arr_2_Glob>
 400065c:	65c7a583          	lw	a1,1628(a5)
 4000660:	04012537          	lui	a0,0x4012
 4000664:	f1050513          	addi	a0,a0,-240 # 4011f10 <_exit+0x28c>
 4000668:	b49ff0ef          	jal	ra,40001b0 <debug_printf>
 400066c:	04012537          	lui	a0,0x4012
 4000670:	f2c50513          	addi	a0,a0,-212 # 4011f2c <_exit+0x2a8>
 4000674:	b3dff0ef          	jal	ra,40001b0 <debug_printf>
 4000678:	04012537          	lui	a0,0x4012
 400067c:	f5850513          	addi	a0,a0,-168 # 4011f58 <_exit+0x2d4>
 4000680:	b31ff0ef          	jal	ra,40001b0 <debug_printf>
 4000684:	0004a783          	lw	a5,0(s1)
 4000688:	04012db7          	lui	s11,0x4012
 400068c:	04012d37          	lui	s10,0x4012
 4000690:	0007a583          	lw	a1,0(a5)
 4000694:	040127b7          	lui	a5,0x4012
 4000698:	f6478513          	addi	a0,a5,-156 # 4011f64 <_exit+0x2e0>
 400069c:	b15ff0ef          	jal	ra,40001b0 <debug_printf>
 40006a0:	04012537          	lui	a0,0x4012
 40006a4:	f8050513          	addi	a0,a0,-128 # 4011f80 <_exit+0x2fc>
 40006a8:	b09ff0ef          	jal	ra,40001b0 <debug_printf>
 40006ac:	0004a703          	lw	a4,0(s1)
 40006b0:	fb4d8513          	addi	a0,s11,-76 # 4011fb4 <_exit+0x330>
 40006b4:	04012cb7          	lui	s9,0x4012
 40006b8:	00472583          	lw	a1,4(a4)
 40006bc:	04012b37          	lui	s6,0x4012
 40006c0:	af1ff0ef          	jal	ra,40001b0 <debug_printf>
 40006c4:	e68a8513          	addi	a0,s5,-408
 40006c8:	00000593          	li	a1,0
 40006cc:	ae5ff0ef          	jal	ra,40001b0 <debug_printf>
 40006d0:	0004a703          	lw	a4,0(s1)
 40006d4:	fd0d0513          	addi	a0,s10,-48 # 4011fd0 <_exit+0x34c>
 40006d8:	00872583          	lw	a1,8(a4)
 40006dc:	ad5ff0ef          	jal	ra,40001b0 <debug_printf>
 40006e0:	e68a8513          	addi	a0,s5,-408
 40006e4:	00200593          	li	a1,2
 40006e8:	ac9ff0ef          	jal	ra,40001b0 <debug_printf>
 40006ec:	0004a703          	lw	a4,0(s1)
 40006f0:	fecc8513          	addi	a0,s9,-20 # 4011fec <_exit+0x368>
 40006f4:	00c72583          	lw	a1,12(a4)
 40006f8:	ab9ff0ef          	jal	ra,40001b0 <debug_printf>
 40006fc:	e68a8513          	addi	a0,s5,-408
 4000700:	01100593          	li	a1,17
 4000704:	aadff0ef          	jal	ra,40001b0 <debug_printf>
 4000708:	0004a583          	lw	a1,0(s1)
 400070c:	008b0513          	addi	a0,s6,8 # 4012008 <_exit+0x384>
 4000710:	040124b7          	lui	s1,0x4012
 4000714:	01058593          	addi	a1,a1,16
 4000718:	a99ff0ef          	jal	ra,40001b0 <debug_printf>
 400071c:	02448513          	addi	a0,s1,36 # 4012024 <_exit+0x3a0>
 4000720:	a91ff0ef          	jal	ra,40001b0 <debug_printf>
 4000724:	04012537          	lui	a0,0x4012
 4000728:	05c50513          	addi	a0,a0,92 # 401205c <_exit+0x3d8>
 400072c:	a85ff0ef          	jal	ra,40001b0 <debug_printf>
 4000730:	00092703          	lw	a4,0(s2)
 4000734:	040127b7          	lui	a5,0x4012
 4000738:	f6478513          	addi	a0,a5,-156 # 4011f64 <_exit+0x2e0>
 400073c:	00072583          	lw	a1,0(a4)
 4000740:	a71ff0ef          	jal	ra,40001b0 <debug_printf>
 4000744:	04012537          	lui	a0,0x4012
 4000748:	07050513          	addi	a0,a0,112 # 4012070 <_exit+0x3ec>
 400074c:	a65ff0ef          	jal	ra,40001b0 <debug_printf>
 4000750:	00092783          	lw	a5,0(s2)
 4000754:	fb4d8513          	addi	a0,s11,-76
 4000758:	0047a583          	lw	a1,4(a5)
 400075c:	a55ff0ef          	jal	ra,40001b0 <debug_printf>
 4000760:	e68a8513          	addi	a0,s5,-408
 4000764:	00000593          	li	a1,0
 4000768:	a49ff0ef          	jal	ra,40001b0 <debug_printf>
 400076c:	00092783          	lw	a5,0(s2)
 4000770:	fd0d0513          	addi	a0,s10,-48
 4000774:	0087a583          	lw	a1,8(a5)
 4000778:	a39ff0ef          	jal	ra,40001b0 <debug_printf>
 400077c:	e68a8513          	addi	a0,s5,-408
 4000780:	00100593          	li	a1,1
 4000784:	a2dff0ef          	jal	ra,40001b0 <debug_printf>
 4000788:	00092783          	lw	a5,0(s2)
 400078c:	fecc8513          	addi	a0,s9,-20
 4000790:	00c7a583          	lw	a1,12(a5)
 4000794:	a1dff0ef          	jal	ra,40001b0 <debug_printf>
 4000798:	e68a8513          	addi	a0,s5,-408
 400079c:	01200593          	li	a1,18
 40007a0:	a11ff0ef          	jal	ra,40001b0 <debug_printf>
 40007a4:	00092583          	lw	a1,0(s2)
 40007a8:	008b0513          	addi	a0,s6,8
 40007ac:	01058593          	addi	a1,a1,16
 40007b0:	a01ff0ef          	jal	ra,40001b0 <debug_printf>
 40007b4:	02448513          	addi	a0,s1,36
 40007b8:	9f9ff0ef          	jal	ra,40001b0 <debug_printf>
 40007bc:	f7442583          	lw	a1,-140(s0)
 40007c0:	04012537          	lui	a0,0x4012
 40007c4:	0b050513          	addi	a0,a0,176 # 40120b0 <_exit+0x42c>
 40007c8:	9e9ff0ef          	jal	ra,40001b0 <debug_printf>
 40007cc:	e68a8513          	addi	a0,s5,-408
 40007d0:	00500593          	li	a1,5
 40007d4:	9ddff0ef          	jal	ra,40001b0 <debug_printf>
 40007d8:	f6c42703          	lw	a4,-148(s0)
 40007dc:	f6842783          	lw	a5,-152(s0)
 40007e0:	04012537          	lui	a0,0x4012
 40007e4:	0cc50513          	addi	a0,a0,204 # 40120cc <_exit+0x448>
 40007e8:	40e785b3          	sub	a1,a5,a4
 40007ec:	00700793          	li	a5,7
 40007f0:	02f585b3          	mul	a1,a1,a5
 40007f4:	040164b7          	lui	s1,0x4016
 40007f8:	f6448493          	addi	s1,s1,-156 # 4015f64 <Dhrystones_Per_Second>
 40007fc:	418585b3          	sub	a1,a1,s8
 4000800:	9b1ff0ef          	jal	ra,40001b0 <debug_printf>
 4000804:	e68a8513          	addi	a0,s5,-408
 4000808:	00d00593          	li	a1,13
 400080c:	9a5ff0ef          	jal	ra,40001b0 <debug_printf>
 4000810:	f7842583          	lw	a1,-136(s0)
 4000814:	04012537          	lui	a0,0x4012
 4000818:	0e850513          	addi	a0,a0,232 # 40120e8 <_exit+0x464>
 400081c:	995ff0ef          	jal	ra,40001b0 <debug_printf>
 4000820:	e68a8513          	addi	a0,s5,-408
 4000824:	00700593          	li	a1,7
 4000828:	989ff0ef          	jal	ra,40001b0 <debug_printf>
 400082c:	f7c42583          	lw	a1,-132(s0)
 4000830:	04012537          	lui	a0,0x4012
 4000834:	10450513          	addi	a0,a0,260 # 4012104 <_exit+0x480>
 4000838:	979ff0ef          	jal	ra,40001b0 <debug_printf>
 400083c:	e68a8513          	addi	a0,s5,-408
 4000840:	00100593          	li	a1,1
 4000844:	96dff0ef          	jal	ra,40001b0 <debug_printf>
 4000848:	04012537          	lui	a0,0x4012
 400084c:	f8040593          	addi	a1,s0,-128
 4000850:	12050513          	addi	a0,a0,288 # 4012120 <_exit+0x49c>
 4000854:	95dff0ef          	jal	ra,40001b0 <debug_printf>
 4000858:	04012537          	lui	a0,0x4012
 400085c:	13c50513          	addi	a0,a0,316 # 401213c <_exit+0x4b8>
 4000860:	951ff0ef          	jal	ra,40001b0 <debug_printf>
 4000864:	04012537          	lui	a0,0x4012
 4000868:	fa040593          	addi	a1,s0,-96
 400086c:	17450513          	addi	a0,a0,372 # 4012174 <_exit+0x4f0>
 4000870:	941ff0ef          	jal	ra,40001b0 <debug_printf>
 4000874:	04012537          	lui	a0,0x4012
 4000878:	19050513          	addi	a0,a0,400 # 4012190 <_exit+0x50c>
 400087c:	935ff0ef          	jal	ra,40001b0 <debug_printf>
 4000880:	f54a0513          	addi	a0,s4,-172
 4000884:	92dff0ef          	jal	ra,40001b0 <debug_printf>
 4000888:	000ba603          	lw	a2,0(s7)
 400088c:	01900793          	li	a5,25
 4000890:	017d8537          	lui	a0,0x17d8
 4000894:	03364933          	div	s2,a2,s3
 4000898:	84050513          	addi	a0,a0,-1984 # 17d7840 <_boot-0x28287c0>
 400089c:	41f65693          	srai	a3,a2,0x1f
 40008a0:	02f94933          	div	s2,s2,a5
 40008a4:	040167b7          	lui	a5,0x4016
 40008a8:	02a995b3          	mulh	a1,s3,a0
 40008ac:	f727aa23          	sw	s2,-140(a5) # 4015f74 <Microseconds>
 40008b0:	02a98533          	mul	a0,s3,a0
 40008b4:	130000ef          	jal	ra,40009e4 <__divdi3>
 40008b8:	00a4a023          	sw	a0,0(s1)
 40008bc:	04012537          	lui	a0,0x4012
 40008c0:	00090593          	mv	a1,s2
 40008c4:	1c850513          	addi	a0,a0,456 # 40121c8 <_exit+0x544>
 40008c8:	00d000ef          	jal	ra,40010d4 <printf>
 40008cc:	0004a583          	lw	a1,0(s1)
 40008d0:	04012537          	lui	a0,0x4012
 40008d4:	1fc50513          	addi	a0,a0,508 # 40121fc <_exit+0x578>
 40008d8:	7fc000ef          	jal	ra,40010d4 <printf>
 40008dc:	f6040113          	addi	sp,s0,-160
 40008e0:	09c12083          	lw	ra,156(sp)
 40008e4:	09812403          	lw	s0,152(sp)
 40008e8:	09412483          	lw	s1,148(sp)
 40008ec:	09012903          	lw	s2,144(sp)
 40008f0:	08c12983          	lw	s3,140(sp)
 40008f4:	08812a03          	lw	s4,136(sp)
 40008f8:	08412a83          	lw	s5,132(sp)
 40008fc:	08012b03          	lw	s6,128(sp)
 4000900:	07c12b83          	lw	s7,124(sp)
 4000904:	07812c03          	lw	s8,120(sp)
 4000908:	07412c83          	lw	s9,116(sp)
 400090c:	07012d03          	lw	s10,112(sp)
 4000910:	06c12d83          	lw	s11,108(sp)
 4000914:	00000513          	li	a0,0
 4000918:	0a010113          	addi	sp,sp,160
 400091c:	00008067          	ret
 4000920:	04012537          	lui	a0,0x4012
 4000924:	d2850513          	addi	a0,a0,-728 # 4011d28 <_exit+0xa4>
 4000928:	b05ff06f          	j	400042c <main+0xe8>
 400092c:	02e507b3          	mul	a5,a0,a4
 4000930:	f7840613          	addi	a2,s0,-136
 4000934:	00300593          	li	a1,3
 4000938:	ffd78793          	addi	a5,a5,-3
 400093c:	f6f42c23          	sw	a5,-136(s0)
 4000940:	ee0ff0ef          	jal	ra,4000020 <Proc_7>
 4000944:	f7442783          	lw	a5,-140(s0)
 4000948:	00178793          	addi	a5,a5,1
 400094c:	f6f42a23          	sw	a5,-140(s0)
 4000950:	b7dff06f          	j	40004cc <main+0x188>
 4000954:	04300593          	li	a1,67
 4000958:	000c0513          	mv	a0,s8
 400095c:	f6e42623          	sw	a4,-148(s0)
 4000960:	f38ff0ef          	jal	ra,4000098 <Func_1>
 4000964:	f7c42683          	lw	a3,-132(s0)
 4000968:	f6c42703          	lw	a4,-148(s0)
 400096c:	02d51663          	bne	a0,a3,4000998 <main+0x654>
 4000970:	f7c40593          	addi	a1,s0,-132
 4000974:	00000513          	li	a0,0
 4000978:	fb4ff0ef          	jal	ra,400012c <Proc_6>
 400097c:	040127b7          	lui	a5,0x4012
 4000980:	dbc78593          	addi	a1,a5,-580 # 4011dbc <_exit+0x138>
 4000984:	fa040513          	addi	a0,s0,-96
 4000988:	119000ef          	jal	ra,40012a0 <strcpy>
 400098c:	040167b7          	lui	a5,0x4016
 4000990:	f777a823          	sw	s7,-144(a5) # 4015f70 <Int_Glob>
 4000994:	000b8713          	mv	a4,s7
 4000998:	001c0793          	addi	a5,s8,1
 400099c:	0ff7fc13          	zext.b	s8,a5
 40009a0:	b5dff06f          	j	40004fc <main+0x1b8>
 40009a4:	00100793          	li	a5,1
 40009a8:	00faa023          	sw	a5,0(s5)
 40009ac:	be1ff06f          	j	400058c <main+0x248>

040009b0 <_write>:
 40009b0:	00060513          	mv	a0,a2
 40009b4:	00000793          	li	a5,0
 40009b8:	810006b7          	lui	a3,0x81000
 40009bc:	00a7c463          	blt	a5,a0,40009c4 <_write+0x14>
 40009c0:	00008067          	ret
 40009c4:	0006a703          	lw	a4,0(a3) # 81000000 <__stack+0x7b000000>
 40009c8:	00177713          	andi	a4,a4,1
 40009cc:	fe071ce3          	bnez	a4,40009c4 <_write+0x14>
 40009d0:	00f58733          	add	a4,a1,a5
 40009d4:	00074703          	lbu	a4,0(a4)
 40009d8:	00178793          	addi	a5,a5,1
 40009dc:	00e6a023          	sw	a4,0(a3)
 40009e0:	fddff06f          	j	40009bc <_write+0xc>

040009e4 <__divdi3>:
 40009e4:	00050e93          	mv	t4,a0
 40009e8:	00000813          	li	a6,0
 40009ec:	1205c663          	bltz	a1,4000b18 <__divdi3+0x134>
 40009f0:	0006dc63          	bgez	a3,4000a08 <__divdi3+0x24>
 40009f4:	00c037b3          	snez	a5,a2
 40009f8:	40d006b3          	neg	a3,a3
 40009fc:	fff84813          	not	a6,a6
 4000a00:	40f686b3          	sub	a3,a3,a5
 4000a04:	40c00633          	neg	a2,a2
 4000a08:	00068793          	mv	a5,a3
 4000a0c:	00060313          	mv	t1,a2
 4000a10:	000e8e13          	mv	t3,t4
 4000a14:	00058893          	mv	a7,a1
 4000a18:	0e069863          	bnez	a3,4000b08 <__divdi3+0x124>
 4000a1c:	16c5f063          	bgeu	a1,a2,4000b7c <__divdi3+0x198>
 4000a20:	00010737          	lui	a4,0x10
 4000a24:	24e66063          	bltu	a2,a4,4000c64 <__divdi3+0x280>
 4000a28:	010007b7          	lui	a5,0x1000
 4000a2c:	44f66a63          	bltu	a2,a5,4000e80 <__divdi3+0x49c>
 4000a30:	01865693          	srli	a3,a2,0x18
 4000a34:	01800793          	li	a5,24
 4000a38:	00011717          	auipc	a4,0x11
 4000a3c:	7f870713          	addi	a4,a4,2040 # 4012230 <__clz_tab>
 4000a40:	00d70733          	add	a4,a4,a3
 4000a44:	00074703          	lbu	a4,0(a4)
 4000a48:	02000693          	li	a3,32
 4000a4c:	00f707b3          	add	a5,a4,a5
 4000a50:	40f68733          	sub	a4,a3,a5
 4000a54:	00f68c63          	beq	a3,a5,4000a6c <__divdi3+0x88>
 4000a58:	00e595b3          	sll	a1,a1,a4
 4000a5c:	00fed7b3          	srl	a5,t4,a5
 4000a60:	00e61333          	sll	t1,a2,a4
 4000a64:	00b7e8b3          	or	a7,a5,a1
 4000a68:	00ee9e33          	sll	t3,t4,a4
 4000a6c:	01035593          	srli	a1,t1,0x10
 4000a70:	02b8d7b3          	divu	a5,a7,a1
 4000a74:	01031613          	slli	a2,t1,0x10
 4000a78:	01065613          	srli	a2,a2,0x10
 4000a7c:	010e5713          	srli	a4,t3,0x10
 4000a80:	02b8f6b3          	remu	a3,a7,a1
 4000a84:	02f60533          	mul	a0,a2,a5
 4000a88:	01069693          	slli	a3,a3,0x10
 4000a8c:	00e6e8b3          	or	a7,a3,a4
 4000a90:	00a8fc63          	bgeu	a7,a0,4000aa8 <__divdi3+0xc4>
 4000a94:	006888b3          	add	a7,a7,t1
 4000a98:	fff78713          	addi	a4,a5,-1 # ffffff <_boot-0x3000001>
 4000a9c:	0068e463          	bltu	a7,t1,4000aa4 <__divdi3+0xc0>
 4000aa0:	40a8ec63          	bltu	a7,a0,4000eb8 <__divdi3+0x4d4>
 4000aa4:	00070793          	mv	a5,a4
 4000aa8:	40a888b3          	sub	a7,a7,a0
 4000aac:	02b8d6b3          	divu	a3,a7,a1
 4000ab0:	010e1e13          	slli	t3,t3,0x10
 4000ab4:	010e5e13          	srli	t3,t3,0x10
 4000ab8:	02b8f8b3          	remu	a7,a7,a1
 4000abc:	02d60633          	mul	a2,a2,a3
 4000ac0:	01089893          	slli	a7,a7,0x10
 4000ac4:	01c8e8b3          	or	a7,a7,t3
 4000ac8:	00c8fe63          	bgeu	a7,a2,4000ae4 <__divdi3+0x100>
 4000acc:	011308b3          	add	a7,t1,a7
 4000ad0:	fff68713          	addi	a4,a3,-1
 4000ad4:	0068e663          	bltu	a7,t1,4000ae0 <__divdi3+0xfc>
 4000ad8:	ffe68693          	addi	a3,a3,-2
 4000adc:	00c8e463          	bltu	a7,a2,4000ae4 <__divdi3+0x100>
 4000ae0:	00070693          	mv	a3,a4
 4000ae4:	01079513          	slli	a0,a5,0x10
 4000ae8:	00d56533          	or	a0,a0,a3
 4000aec:	00000593          	li	a1,0
 4000af0:	00080a63          	beqz	a6,4000b04 <__divdi3+0x120>
 4000af4:	00a037b3          	snez	a5,a0
 4000af8:	40b005b3          	neg	a1,a1
 4000afc:	40f585b3          	sub	a1,a1,a5
 4000b00:	40a00533          	neg	a0,a0
 4000b04:	00008067          	ret
 4000b08:	02d5f463          	bgeu	a1,a3,4000b30 <__divdi3+0x14c>
 4000b0c:	00000593          	li	a1,0
 4000b10:	00000513          	li	a0,0
 4000b14:	fddff06f          	j	4000af0 <__divdi3+0x10c>
 4000b18:	00a037b3          	snez	a5,a0
 4000b1c:	40b005b3          	neg	a1,a1
 4000b20:	40f585b3          	sub	a1,a1,a5
 4000b24:	40a00eb3          	neg	t4,a0
 4000b28:	fff00813          	li	a6,-1
 4000b2c:	ec5ff06f          	j	40009f0 <__divdi3+0xc>
 4000b30:	000107b7          	lui	a5,0x10
 4000b34:	14f6e463          	bltu	a3,a5,4000c7c <__divdi3+0x298>
 4000b38:	010007b7          	lui	a5,0x1000
 4000b3c:	32f6e063          	bltu	a3,a5,4000e5c <__divdi3+0x478>
 4000b40:	0186d513          	srli	a0,a3,0x18
 4000b44:	01800713          	li	a4,24
 4000b48:	00011797          	auipc	a5,0x11
 4000b4c:	6e878793          	addi	a5,a5,1768 # 4012230 <__clz_tab>
 4000b50:	00a787b3          	add	a5,a5,a0
 4000b54:	0007c883          	lbu	a7,0(a5)
 4000b58:	02000793          	li	a5,32
 4000b5c:	00e888b3          	add	a7,a7,a4
 4000b60:	41178333          	sub	t1,a5,a7
 4000b64:	1d179863          	bne	a5,a7,4000d34 <__divdi3+0x350>
 4000b68:	32b6e263          	bltu	a3,a1,4000e8c <__divdi3+0x4a8>
 4000b6c:	00ceb533          	sltu	a0,t4,a2
 4000b70:	00154513          	xori	a0,a0,1
 4000b74:	00000593          	li	a1,0
 4000b78:	f79ff06f          	j	4000af0 <__divdi3+0x10c>
 4000b7c:	00061663          	bnez	a2,4000b88 <__divdi3+0x1a4>
 4000b80:	00100313          	li	t1,1
 4000b84:	02d35333          	divu	t1,t1,a3
 4000b88:	00010737          	lui	a4,0x10
 4000b8c:	0ce36063          	bltu	t1,a4,4000c4c <__divdi3+0x268>
 4000b90:	010007b7          	lui	a5,0x1000
 4000b94:	2ef36063          	bltu	t1,a5,4000e74 <__divdi3+0x490>
 4000b98:	01835693          	srli	a3,t1,0x18
 4000b9c:	01800793          	li	a5,24
 4000ba0:	00011717          	auipc	a4,0x11
 4000ba4:	69070713          	addi	a4,a4,1680 # 4012230 <__clz_tab>
 4000ba8:	00d70733          	add	a4,a4,a3
 4000bac:	00074703          	lbu	a4,0(a4)
 4000bb0:	02000693          	li	a3,32
 4000bb4:	00f707b3          	add	a5,a4,a5
 4000bb8:	40f68733          	sub	a4,a3,a5
 4000bbc:	0cf69a63          	bne	a3,a5,4000c90 <__divdi3+0x2ac>
 4000bc0:	01031f13          	slli	t5,t1,0x10
 4000bc4:	406586b3          	sub	a3,a1,t1
 4000bc8:	01035f93          	srli	t6,t1,0x10
 4000bcc:	010f5f13          	srli	t5,t5,0x10
 4000bd0:	00100593          	li	a1,1
 4000bd4:	010e5713          	srli	a4,t3,0x10
 4000bd8:	03f6d7b3          	divu	a5,a3,t6
 4000bdc:	03f6f6b3          	remu	a3,a3,t6
 4000be0:	03e78633          	mul	a2,a5,t5
 4000be4:	01069693          	slli	a3,a3,0x10
 4000be8:	00e6e733          	or	a4,a3,a4
 4000bec:	00c77c63          	bgeu	a4,a2,4000c04 <__divdi3+0x220>
 4000bf0:	00670733          	add	a4,a4,t1
 4000bf4:	fff78693          	addi	a3,a5,-1 # ffffff <_boot-0x3000001>
 4000bf8:	00676463          	bltu	a4,t1,4000c00 <__divdi3+0x21c>
 4000bfc:	2cc76463          	bltu	a4,a2,4000ec4 <__divdi3+0x4e0>
 4000c00:	00068793          	mv	a5,a3
 4000c04:	40c70733          	sub	a4,a4,a2
 4000c08:	03f756b3          	divu	a3,a4,t6
 4000c0c:	010e1e13          	slli	t3,t3,0x10
 4000c10:	010e5e13          	srli	t3,t3,0x10
 4000c14:	03f77733          	remu	a4,a4,t6
 4000c18:	03e68f33          	mul	t5,a3,t5
 4000c1c:	01071713          	slli	a4,a4,0x10
 4000c20:	01c76733          	or	a4,a4,t3
 4000c24:	01e77e63          	bgeu	a4,t5,4000c40 <__divdi3+0x25c>
 4000c28:	00e30733          	add	a4,t1,a4
 4000c2c:	fff68613          	addi	a2,a3,-1
 4000c30:	00676663          	bltu	a4,t1,4000c3c <__divdi3+0x258>
 4000c34:	ffe68693          	addi	a3,a3,-2
 4000c38:	01e76463          	bltu	a4,t5,4000c40 <__divdi3+0x25c>
 4000c3c:	00060693          	mv	a3,a2
 4000c40:	01079513          	slli	a0,a5,0x10
 4000c44:	00d56533          	or	a0,a0,a3
 4000c48:	ea9ff06f          	j	4000af0 <__divdi3+0x10c>
 4000c4c:	0ff00713          	li	a4,255
 4000c50:	00030693          	mv	a3,t1
 4000c54:	f46776e3          	bgeu	a4,t1,4000ba0 <__divdi3+0x1bc>
 4000c58:	00835693          	srli	a3,t1,0x8
 4000c5c:	00800793          	li	a5,8
 4000c60:	f41ff06f          	j	4000ba0 <__divdi3+0x1bc>
 4000c64:	0ff00713          	li	a4,255
 4000c68:	00060693          	mv	a3,a2
 4000c6c:	dcc776e3          	bgeu	a4,a2,4000a38 <__divdi3+0x54>
 4000c70:	00865693          	srli	a3,a2,0x8
 4000c74:	00800793          	li	a5,8
 4000c78:	dc1ff06f          	j	4000a38 <__divdi3+0x54>
 4000c7c:	0ff00793          	li	a5,255
 4000c80:	1ed7f463          	bgeu	a5,a3,4000e68 <__divdi3+0x484>
 4000c84:	0086d513          	srli	a0,a3,0x8
 4000c88:	00800713          	li	a4,8
 4000c8c:	ebdff06f          	j	4000b48 <__divdi3+0x164>
 4000c90:	00e31333          	sll	t1,t1,a4
 4000c94:	00f5d633          	srl	a2,a1,a5
 4000c98:	01035f93          	srli	t6,t1,0x10
 4000c9c:	03f658b3          	divu	a7,a2,t6
 4000ca0:	00e595b3          	sll	a1,a1,a4
 4000ca4:	00fed7b3          	srl	a5,t4,a5
 4000ca8:	00b7e6b3          	or	a3,a5,a1
 4000cac:	01031f13          	slli	t5,t1,0x10
 4000cb0:	010f5f13          	srli	t5,t5,0x10
 4000cb4:	0106d513          	srli	a0,a3,0x10
 4000cb8:	00ee9e33          	sll	t3,t4,a4
 4000cbc:	03f677b3          	remu	a5,a2,t6
 4000cc0:	031f05b3          	mul	a1,t5,a7
 4000cc4:	01079793          	slli	a5,a5,0x10
 4000cc8:	00a7e7b3          	or	a5,a5,a0
 4000ccc:	00b7fe63          	bgeu	a5,a1,4000ce8 <__divdi3+0x304>
 4000cd0:	006787b3          	add	a5,a5,t1
 4000cd4:	fff88713          	addi	a4,a7,-1
 4000cd8:	1c67ec63          	bltu	a5,t1,4000eb0 <__divdi3+0x4cc>
 4000cdc:	1cb7fa63          	bgeu	a5,a1,4000eb0 <__divdi3+0x4cc>
 4000ce0:	ffe88893          	addi	a7,a7,-2
 4000ce4:	006787b3          	add	a5,a5,t1
 4000ce8:	40b787b3          	sub	a5,a5,a1
 4000cec:	03f7d733          	divu	a4,a5,t6
 4000cf0:	01069593          	slli	a1,a3,0x10
 4000cf4:	0105d593          	srli	a1,a1,0x10
 4000cf8:	03f7f7b3          	remu	a5,a5,t6
 4000cfc:	02ef0633          	mul	a2,t5,a4
 4000d00:	01079693          	slli	a3,a5,0x10
 4000d04:	00b6e5b3          	or	a1,a3,a1
 4000d08:	00c5fe63          	bgeu	a1,a2,4000d24 <__divdi3+0x340>
 4000d0c:	006585b3          	add	a1,a1,t1
 4000d10:	fff70793          	addi	a5,a4,-1
 4000d14:	1865e663          	bltu	a1,t1,4000ea0 <__divdi3+0x4bc>
 4000d18:	18c5f463          	bgeu	a1,a2,4000ea0 <__divdi3+0x4bc>
 4000d1c:	ffe70713          	addi	a4,a4,-2
 4000d20:	006585b3          	add	a1,a1,t1
 4000d24:	01089893          	slli	a7,a7,0x10
 4000d28:	40c586b3          	sub	a3,a1,a2
 4000d2c:	00e8e5b3          	or	a1,a7,a4
 4000d30:	ea5ff06f          	j	4000bd4 <__divdi3+0x1f0>
 4000d34:	011657b3          	srl	a5,a2,a7
 4000d38:	006696b3          	sll	a3,a3,t1
 4000d3c:	00d7e6b3          	or	a3,a5,a3
 4000d40:	0115d733          	srl	a4,a1,a7
 4000d44:	0106df93          	srli	t6,a3,0x10
 4000d48:	03f75f33          	divu	t5,a4,t6
 4000d4c:	01069e13          	slli	t3,a3,0x10
 4000d50:	010e5e13          	srli	t3,t3,0x10
 4000d54:	006595b3          	sll	a1,a1,t1
 4000d58:	011ed8b3          	srl	a7,t4,a7
 4000d5c:	00b8e5b3          	or	a1,a7,a1
 4000d60:	0105d793          	srli	a5,a1,0x10
 4000d64:	00661633          	sll	a2,a2,t1
 4000d68:	03f77733          	remu	a4,a4,t6
 4000d6c:	03ee0533          	mul	a0,t3,t5
 4000d70:	01071713          	slli	a4,a4,0x10
 4000d74:	00f767b3          	or	a5,a4,a5
 4000d78:	00a7fe63          	bgeu	a5,a0,4000d94 <__divdi3+0x3b0>
 4000d7c:	00d787b3          	add	a5,a5,a3
 4000d80:	ffff0713          	addi	a4,t5,-1
 4000d84:	12d7e263          	bltu	a5,a3,4000ea8 <__divdi3+0x4c4>
 4000d88:	12a7f063          	bgeu	a5,a0,4000ea8 <__divdi3+0x4c4>
 4000d8c:	ffef0f13          	addi	t5,t5,-2
 4000d90:	00d787b3          	add	a5,a5,a3
 4000d94:	40a787b3          	sub	a5,a5,a0
 4000d98:	03f7d733          	divu	a4,a5,t6
 4000d9c:	01059593          	slli	a1,a1,0x10
 4000da0:	0105d593          	srli	a1,a1,0x10
 4000da4:	03f7f7b3          	remu	a5,a5,t6
 4000da8:	02ee08b3          	mul	a7,t3,a4
 4000dac:	01079793          	slli	a5,a5,0x10
 4000db0:	00b7e5b3          	or	a1,a5,a1
 4000db4:	0115fe63          	bgeu	a1,a7,4000dd0 <__divdi3+0x3ec>
 4000db8:	00d585b3          	add	a1,a1,a3
 4000dbc:	fff70793          	addi	a5,a4,-1
 4000dc0:	0cd5ec63          	bltu	a1,a3,4000e98 <__divdi3+0x4b4>
 4000dc4:	0d15fa63          	bgeu	a1,a7,4000e98 <__divdi3+0x4b4>
 4000dc8:	ffe70713          	addi	a4,a4,-2
 4000dcc:	00d585b3          	add	a1,a1,a3
 4000dd0:	010f1513          	slli	a0,t5,0x10
 4000dd4:	00010fb7          	lui	t6,0x10
 4000dd8:	00e56533          	or	a0,a0,a4
 4000ddc:	ffff8793          	addi	a5,t6,-1 # ffff <_boot-0x3ff0001>
 4000de0:	00f57733          	and	a4,a0,a5
 4000de4:	01055e13          	srli	t3,a0,0x10
 4000de8:	00f677b3          	and	a5,a2,a5
 4000dec:	01065613          	srli	a2,a2,0x10
 4000df0:	02f70f33          	mul	t5,a4,a5
 4000df4:	411585b3          	sub	a1,a1,a7
 4000df8:	02c70733          	mul	a4,a4,a2
 4000dfc:	010f5693          	srli	a3,t5,0x10
 4000e00:	02fe07b3          	mul	a5,t3,a5
 4000e04:	00f70733          	add	a4,a4,a5
 4000e08:	00e68733          	add	a4,a3,a4
 4000e0c:	02ce0633          	mul	a2,t3,a2
 4000e10:	00f77463          	bgeu	a4,a5,4000e18 <__divdi3+0x434>
 4000e14:	01f60633          	add	a2,a2,t6
 4000e18:	01075e13          	srli	t3,a4,0x10
 4000e1c:	00ce0633          	add	a2,t3,a2
 4000e20:	02c5e863          	bltu	a1,a2,4000e50 <__divdi3+0x46c>
 4000e24:	00c58663          	beq	a1,a2,4000e30 <__divdi3+0x44c>
 4000e28:	00000593          	li	a1,0
 4000e2c:	cc5ff06f          	j	4000af0 <__divdi3+0x10c>
 4000e30:	000106b7          	lui	a3,0x10
 4000e34:	fff68693          	addi	a3,a3,-1 # ffff <_boot-0x3ff0001>
 4000e38:	00d77733          	and	a4,a4,a3
 4000e3c:	01071793          	slli	a5,a4,0x10
 4000e40:	00df7f33          	and	t5,t5,a3
 4000e44:	006e9eb3          	sll	t4,t4,t1
 4000e48:	01e787b3          	add	a5,a5,t5
 4000e4c:	fcfefee3          	bgeu	t4,a5,4000e28 <__divdi3+0x444>
 4000e50:	fff50513          	addi	a0,a0,-1
 4000e54:	00000593          	li	a1,0
 4000e58:	c99ff06f          	j	4000af0 <__divdi3+0x10c>
 4000e5c:	0106d513          	srli	a0,a3,0x10
 4000e60:	01000713          	li	a4,16
 4000e64:	ce5ff06f          	j	4000b48 <__divdi3+0x164>
 4000e68:	00068513          	mv	a0,a3
 4000e6c:	00000713          	li	a4,0
 4000e70:	cd9ff06f          	j	4000b48 <__divdi3+0x164>
 4000e74:	01035693          	srli	a3,t1,0x10
 4000e78:	01000793          	li	a5,16
 4000e7c:	d25ff06f          	j	4000ba0 <__divdi3+0x1bc>
 4000e80:	01065693          	srli	a3,a2,0x10
 4000e84:	01000793          	li	a5,16
 4000e88:	bb1ff06f          	j	4000a38 <__divdi3+0x54>
 4000e8c:	00000593          	li	a1,0
 4000e90:	00100513          	li	a0,1
 4000e94:	c5dff06f          	j	4000af0 <__divdi3+0x10c>
 4000e98:	00078713          	mv	a4,a5
 4000e9c:	f35ff06f          	j	4000dd0 <__divdi3+0x3ec>
 4000ea0:	00078713          	mv	a4,a5
 4000ea4:	e81ff06f          	j	4000d24 <__divdi3+0x340>
 4000ea8:	00070f13          	mv	t5,a4
 4000eac:	ee9ff06f          	j	4000d94 <__divdi3+0x3b0>
 4000eb0:	00070893          	mv	a7,a4
 4000eb4:	e35ff06f          	j	4000ce8 <__divdi3+0x304>
 4000eb8:	ffe78793          	addi	a5,a5,-2
 4000ebc:	006888b3          	add	a7,a7,t1
 4000ec0:	be9ff06f          	j	4000aa8 <__divdi3+0xc4>
 4000ec4:	ffe78793          	addi	a5,a5,-2
 4000ec8:	00670733          	add	a4,a4,t1
 4000ecc:	d39ff06f          	j	4000c04 <__divdi3+0x220>

04000ed0 <memcpy>:
 4000ed0:	00a5c7b3          	xor	a5,a1,a0
 4000ed4:	0037f793          	andi	a5,a5,3
 4000ed8:	00c508b3          	add	a7,a0,a2
 4000edc:	06079663          	bnez	a5,4000f48 <memcpy+0x78>
 4000ee0:	00300793          	li	a5,3
 4000ee4:	06c7f263          	bgeu	a5,a2,4000f48 <memcpy+0x78>
 4000ee8:	00357793          	andi	a5,a0,3
 4000eec:	00050713          	mv	a4,a0
 4000ef0:	0c079a63          	bnez	a5,4000fc4 <memcpy+0xf4>
 4000ef4:	ffc8f613          	andi	a2,a7,-4
 4000ef8:	40e606b3          	sub	a3,a2,a4
 4000efc:	02000793          	li	a5,32
 4000f00:	02000293          	li	t0,32
 4000f04:	06d7c263          	blt	a5,a3,4000f68 <memcpy+0x98>
 4000f08:	00058693          	mv	a3,a1
 4000f0c:	00070793          	mv	a5,a4
 4000f10:	02c77863          	bgeu	a4,a2,4000f40 <memcpy+0x70>
 4000f14:	0006a803          	lw	a6,0(a3)
 4000f18:	00478793          	addi	a5,a5,4
 4000f1c:	00468693          	addi	a3,a3,4
 4000f20:	ff07ae23          	sw	a6,-4(a5)
 4000f24:	fec7e8e3          	bltu	a5,a2,4000f14 <memcpy+0x44>
 4000f28:	fff60793          	addi	a5,a2,-1
 4000f2c:	40e787b3          	sub	a5,a5,a4
 4000f30:	ffc7f793          	andi	a5,a5,-4
 4000f34:	00478793          	addi	a5,a5,4
 4000f38:	00f70733          	add	a4,a4,a5
 4000f3c:	00f585b3          	add	a1,a1,a5
 4000f40:	01176863          	bltu	a4,a7,4000f50 <memcpy+0x80>
 4000f44:	00008067          	ret
 4000f48:	00050713          	mv	a4,a0
 4000f4c:	ff157ce3          	bgeu	a0,a7,4000f44 <memcpy+0x74>
 4000f50:	0005c783          	lbu	a5,0(a1)
 4000f54:	00170713          	addi	a4,a4,1
 4000f58:	00158593          	addi	a1,a1,1
 4000f5c:	fef70fa3          	sb	a5,-1(a4)
 4000f60:	ff1768e3          	bltu	a4,a7,4000f50 <memcpy+0x80>
 4000f64:	00008067          	ret
 4000f68:	0045a683          	lw	a3,4(a1)
 4000f6c:	01c5a783          	lw	a5,28(a1)
 4000f70:	0005af83          	lw	t6,0(a1)
 4000f74:	0085af03          	lw	t5,8(a1)
 4000f78:	00c5ae83          	lw	t4,12(a1)
 4000f7c:	0105ae03          	lw	t3,16(a1)
 4000f80:	0145a303          	lw	t1,20(a1)
 4000f84:	0185a803          	lw	a6,24(a1)
 4000f88:	00d72223          	sw	a3,4(a4)
 4000f8c:	0205a683          	lw	a3,32(a1)
 4000f90:	01f72023          	sw	t6,0(a4)
 4000f94:	01e72423          	sw	t5,8(a4)
 4000f98:	01d72623          	sw	t4,12(a4)
 4000f9c:	01c72823          	sw	t3,16(a4)
 4000fa0:	00672a23          	sw	t1,20(a4)
 4000fa4:	01072c23          	sw	a6,24(a4)
 4000fa8:	00f72e23          	sw	a5,28(a4)
 4000fac:	02470713          	addi	a4,a4,36
 4000fb0:	40e607b3          	sub	a5,a2,a4
 4000fb4:	fed72e23          	sw	a3,-4(a4)
 4000fb8:	02458593          	addi	a1,a1,36
 4000fbc:	faf2c6e3          	blt	t0,a5,4000f68 <memcpy+0x98>
 4000fc0:	f49ff06f          	j	4000f08 <memcpy+0x38>
 4000fc4:	0005c683          	lbu	a3,0(a1)
 4000fc8:	00170713          	addi	a4,a4,1
 4000fcc:	00377793          	andi	a5,a4,3
 4000fd0:	fed70fa3          	sb	a3,-1(a4)
 4000fd4:	00158593          	addi	a1,a1,1
 4000fd8:	f0078ee3          	beqz	a5,4000ef4 <memcpy+0x24>
 4000fdc:	0005c683          	lbu	a3,0(a1)
 4000fe0:	00170713          	addi	a4,a4,1
 4000fe4:	00377793          	andi	a5,a4,3
 4000fe8:	fed70fa3          	sb	a3,-1(a4)
 4000fec:	00158593          	addi	a1,a1,1
 4000ff0:	fc079ae3          	bnez	a5,4000fc4 <memcpy+0xf4>
 4000ff4:	f01ff06f          	j	4000ef4 <memcpy+0x24>

04000ff8 <memset>:
 4000ff8:	00f00313          	li	t1,15
 4000ffc:	00050713          	mv	a4,a0
 4001000:	02c37e63          	bgeu	t1,a2,400103c <memset+0x44>
 4001004:	00f77793          	andi	a5,a4,15
 4001008:	0a079063          	bnez	a5,40010a8 <memset+0xb0>
 400100c:	08059263          	bnez	a1,4001090 <memset+0x98>
 4001010:	ff067693          	andi	a3,a2,-16
 4001014:	00f67613          	andi	a2,a2,15
 4001018:	00e686b3          	add	a3,a3,a4
 400101c:	00b72023          	sw	a1,0(a4)
 4001020:	00b72223          	sw	a1,4(a4)
 4001024:	00b72423          	sw	a1,8(a4)
 4001028:	00b72623          	sw	a1,12(a4)
 400102c:	01070713          	addi	a4,a4,16
 4001030:	fed766e3          	bltu	a4,a3,400101c <memset+0x24>
 4001034:	00061463          	bnez	a2,400103c <memset+0x44>
 4001038:	00008067          	ret
 400103c:	40c306b3          	sub	a3,t1,a2
 4001040:	00269693          	slli	a3,a3,0x2
 4001044:	00000297          	auipc	t0,0x0
 4001048:	005686b3          	add	a3,a3,t0
 400104c:	00c68067          	jr	12(a3)
 4001050:	00b70723          	sb	a1,14(a4)
 4001054:	00b706a3          	sb	a1,13(a4)
 4001058:	00b70623          	sb	a1,12(a4)
 400105c:	00b705a3          	sb	a1,11(a4)
 4001060:	00b70523          	sb	a1,10(a4)
 4001064:	00b704a3          	sb	a1,9(a4)
 4001068:	00b70423          	sb	a1,8(a4)
 400106c:	00b703a3          	sb	a1,7(a4)
 4001070:	00b70323          	sb	a1,6(a4)
 4001074:	00b702a3          	sb	a1,5(a4)
 4001078:	00b70223          	sb	a1,4(a4)
 400107c:	00b701a3          	sb	a1,3(a4)
 4001080:	00b70123          	sb	a1,2(a4)
 4001084:	00b700a3          	sb	a1,1(a4)
 4001088:	00b70023          	sb	a1,0(a4)
 400108c:	00008067          	ret
 4001090:	0ff5f593          	zext.b	a1,a1
 4001094:	00859693          	slli	a3,a1,0x8
 4001098:	00d5e5b3          	or	a1,a1,a3
 400109c:	01059693          	slli	a3,a1,0x10
 40010a0:	00d5e5b3          	or	a1,a1,a3
 40010a4:	f6dff06f          	j	4001010 <memset+0x18>
 40010a8:	00279693          	slli	a3,a5,0x2
 40010ac:	00000297          	auipc	t0,0x0
 40010b0:	005686b3          	add	a3,a3,t0
 40010b4:	00008293          	mv	t0,ra
 40010b8:	fa0680e7          	jalr	-96(a3)
 40010bc:	00028093          	mv	ra,t0
 40010c0:	ff078793          	addi	a5,a5,-16
 40010c4:	40f70733          	sub	a4,a4,a5
 40010c8:	00f60633          	add	a2,a2,a5
 40010cc:	f6c378e3          	bgeu	t1,a2,400103c <memset+0x44>
 40010d0:	f3dff06f          	j	400100c <memset+0x14>

040010d4 <printf>:
 40010d4:	fc010113          	addi	sp,sp,-64
 40010d8:	02c12423          	sw	a2,40(sp)
 40010dc:	02d12623          	sw	a3,44(sp)
 40010e0:	00012317          	auipc	t1,0x12
 40010e4:	66c32303          	lw	t1,1644(t1) # 401374c <_impure_ptr>
 40010e8:	02b12223          	sw	a1,36(sp)
 40010ec:	02e12823          	sw	a4,48(sp)
 40010f0:	02f12a23          	sw	a5,52(sp)
 40010f4:	03012c23          	sw	a6,56(sp)
 40010f8:	03112e23          	sw	a7,60(sp)
 40010fc:	00832583          	lw	a1,8(t1)
 4001100:	02410693          	addi	a3,sp,36
 4001104:	00050613          	mv	a2,a0
 4001108:	00030513          	mv	a0,t1
 400110c:	00112e23          	sw	ra,28(sp)
 4001110:	00d12623          	sw	a3,12(sp)
 4001114:	23c000ef          	jal	ra,4001350 <_vfprintf_r>
 4001118:	01c12083          	lw	ra,28(sp)
 400111c:	04010113          	addi	sp,sp,64
 4001120:	00008067          	ret

04001124 <strcmp>:
 4001124:	00b56733          	or	a4,a0,a1
 4001128:	fff00393          	li	t2,-1
 400112c:	00377713          	andi	a4,a4,3
 4001130:	10071063          	bnez	a4,4001230 <strcmp+0x10c>
 4001134:	7f7f87b7          	lui	a5,0x7f7f8
 4001138:	f7f78793          	addi	a5,a5,-129 # 7f7f7f7f <__stack+0x797f7f7f>
 400113c:	00052603          	lw	a2,0(a0)
 4001140:	0005a683          	lw	a3,0(a1)
 4001144:	00f672b3          	and	t0,a2,a5
 4001148:	00f66333          	or	t1,a2,a5
 400114c:	00f282b3          	add	t0,t0,a5
 4001150:	0062e2b3          	or	t0,t0,t1
 4001154:	10729263          	bne	t0,t2,4001258 <strcmp+0x134>
 4001158:	08d61663          	bne	a2,a3,40011e4 <strcmp+0xc0>
 400115c:	00452603          	lw	a2,4(a0)
 4001160:	0045a683          	lw	a3,4(a1)
 4001164:	00f672b3          	and	t0,a2,a5
 4001168:	00f66333          	or	t1,a2,a5
 400116c:	00f282b3          	add	t0,t0,a5
 4001170:	0062e2b3          	or	t0,t0,t1
 4001174:	0c729e63          	bne	t0,t2,4001250 <strcmp+0x12c>
 4001178:	06d61663          	bne	a2,a3,40011e4 <strcmp+0xc0>
 400117c:	00852603          	lw	a2,8(a0)
 4001180:	0085a683          	lw	a3,8(a1)
 4001184:	00f672b3          	and	t0,a2,a5
 4001188:	00f66333          	or	t1,a2,a5
 400118c:	00f282b3          	add	t0,t0,a5
 4001190:	0062e2b3          	or	t0,t0,t1
 4001194:	0c729863          	bne	t0,t2,4001264 <strcmp+0x140>
 4001198:	04d61663          	bne	a2,a3,40011e4 <strcmp+0xc0>
 400119c:	00c52603          	lw	a2,12(a0)
 40011a0:	00c5a683          	lw	a3,12(a1)
 40011a4:	00f672b3          	and	t0,a2,a5
 40011a8:	00f66333          	or	t1,a2,a5
 40011ac:	00f282b3          	add	t0,t0,a5
 40011b0:	0062e2b3          	or	t0,t0,t1
 40011b4:	0c729263          	bne	t0,t2,4001278 <strcmp+0x154>
 40011b8:	02d61663          	bne	a2,a3,40011e4 <strcmp+0xc0>
 40011bc:	01052603          	lw	a2,16(a0)
 40011c0:	0105a683          	lw	a3,16(a1)
 40011c4:	00f672b3          	and	t0,a2,a5
 40011c8:	00f66333          	or	t1,a2,a5
 40011cc:	00f282b3          	add	t0,t0,a5
 40011d0:	0062e2b3          	or	t0,t0,t1
 40011d4:	0a729c63          	bne	t0,t2,400128c <strcmp+0x168>
 40011d8:	01450513          	addi	a0,a0,20
 40011dc:	01458593          	addi	a1,a1,20
 40011e0:	f4d60ee3          	beq	a2,a3,400113c <strcmp+0x18>
 40011e4:	01061713          	slli	a4,a2,0x10
 40011e8:	01069793          	slli	a5,a3,0x10
 40011ec:	00f71e63          	bne	a4,a5,4001208 <strcmp+0xe4>
 40011f0:	01065713          	srli	a4,a2,0x10
 40011f4:	0106d793          	srli	a5,a3,0x10
 40011f8:	40f70533          	sub	a0,a4,a5
 40011fc:	0ff57593          	zext.b	a1,a0
 4001200:	02059063          	bnez	a1,4001220 <strcmp+0xfc>
 4001204:	00008067          	ret
 4001208:	01075713          	srli	a4,a4,0x10
 400120c:	0107d793          	srli	a5,a5,0x10
 4001210:	40f70533          	sub	a0,a4,a5
 4001214:	0ff57593          	zext.b	a1,a0
 4001218:	00059463          	bnez	a1,4001220 <strcmp+0xfc>
 400121c:	00008067          	ret
 4001220:	0ff77713          	zext.b	a4,a4
 4001224:	0ff7f793          	zext.b	a5,a5
 4001228:	40f70533          	sub	a0,a4,a5
 400122c:	00008067          	ret
 4001230:	00054603          	lbu	a2,0(a0)
 4001234:	0005c683          	lbu	a3,0(a1)
 4001238:	00150513          	addi	a0,a0,1
 400123c:	00158593          	addi	a1,a1,1
 4001240:	00d61463          	bne	a2,a3,4001248 <strcmp+0x124>
 4001244:	fe0616e3          	bnez	a2,4001230 <strcmp+0x10c>
 4001248:	40d60533          	sub	a0,a2,a3
 400124c:	00008067          	ret
 4001250:	00450513          	addi	a0,a0,4
 4001254:	00458593          	addi	a1,a1,4
 4001258:	fcd61ce3          	bne	a2,a3,4001230 <strcmp+0x10c>
 400125c:	00000513          	li	a0,0
 4001260:	00008067          	ret
 4001264:	00850513          	addi	a0,a0,8
 4001268:	00858593          	addi	a1,a1,8
 400126c:	fcd612e3          	bne	a2,a3,4001230 <strcmp+0x10c>
 4001270:	00000513          	li	a0,0
 4001274:	00008067          	ret
 4001278:	00c50513          	addi	a0,a0,12
 400127c:	00c58593          	addi	a1,a1,12
 4001280:	fad618e3          	bne	a2,a3,4001230 <strcmp+0x10c>
 4001284:	00000513          	li	a0,0
 4001288:	00008067          	ret
 400128c:	01050513          	addi	a0,a0,16
 4001290:	01058593          	addi	a1,a1,16
 4001294:	f8d61ee3          	bne	a2,a3,4001230 <strcmp+0x10c>
 4001298:	00000513          	li	a0,0
 400129c:	00008067          	ret

040012a0 <strcpy>:
 40012a0:	00b567b3          	or	a5,a0,a1
 40012a4:	0037f793          	andi	a5,a5,3
 40012a8:	08079263          	bnez	a5,400132c <strcpy+0x8c>
 40012ac:	0005a703          	lw	a4,0(a1)
 40012b0:	7f7f86b7          	lui	a3,0x7f7f8
 40012b4:	f7f68693          	addi	a3,a3,-129 # 7f7f7f7f <__stack+0x797f7f7f>
 40012b8:	00d777b3          	and	a5,a4,a3
 40012bc:	00d787b3          	add	a5,a5,a3
 40012c0:	00e7e7b3          	or	a5,a5,a4
 40012c4:	00d7e7b3          	or	a5,a5,a3
 40012c8:	fff00613          	li	a2,-1
 40012cc:	06c79e63          	bne	a5,a2,4001348 <strcpy+0xa8>
 40012d0:	00050613          	mv	a2,a0
 40012d4:	fff00813          	li	a6,-1
 40012d8:	00e62023          	sw	a4,0(a2)
 40012dc:	0045a703          	lw	a4,4(a1)
 40012e0:	00458593          	addi	a1,a1,4
 40012e4:	00460613          	addi	a2,a2,4
 40012e8:	00d777b3          	and	a5,a4,a3
 40012ec:	00d787b3          	add	a5,a5,a3
 40012f0:	00e7e7b3          	or	a5,a5,a4
 40012f4:	00d7e7b3          	or	a5,a5,a3
 40012f8:	ff0780e3          	beq	a5,a6,40012d8 <strcpy+0x38>
 40012fc:	0005c783          	lbu	a5,0(a1)
 4001300:	0015c703          	lbu	a4,1(a1)
 4001304:	0025c683          	lbu	a3,2(a1)
 4001308:	00f60023          	sb	a5,0(a2)
 400130c:	00078a63          	beqz	a5,4001320 <strcpy+0x80>
 4001310:	00e600a3          	sb	a4,1(a2)
 4001314:	00070663          	beqz	a4,4001320 <strcpy+0x80>
 4001318:	00d60123          	sb	a3,2(a2)
 400131c:	00069463          	bnez	a3,4001324 <strcpy+0x84>
 4001320:	00008067          	ret
 4001324:	000601a3          	sb	zero,3(a2)
 4001328:	00008067          	ret
 400132c:	00050793          	mv	a5,a0
 4001330:	0005c703          	lbu	a4,0(a1)
 4001334:	00178793          	addi	a5,a5,1
 4001338:	00158593          	addi	a1,a1,1
 400133c:	fee78fa3          	sb	a4,-1(a5)
 4001340:	fe0718e3          	bnez	a4,4001330 <strcpy+0x90>
 4001344:	00008067          	ret
 4001348:	00050613          	mv	a2,a0
 400134c:	fb1ff06f          	j	40012fc <strcpy+0x5c>

04001350 <_vfprintf_r>:
 4001350:	e0010113          	addi	sp,sp,-512
 4001354:	1e112e23          	sw	ra,508(sp)
 4001358:	1f212823          	sw	s2,496(sp)
 400135c:	1d812c23          	sw	s8,472(sp)
 4001360:	1da12823          	sw	s10,464(sp)
 4001364:	00058c13          	mv	s8,a1
 4001368:	00060913          	mv	s2,a2
 400136c:	00d12a23          	sw	a3,20(sp)
 4001370:	1e812c23          	sw	s0,504(sp)
 4001374:	1e912a23          	sw	s1,500(sp)
 4001378:	1f312623          	sw	s3,492(sp)
 400137c:	1f412423          	sw	s4,488(sp)
 4001380:	1f512223          	sw	s5,484(sp)
 4001384:	1f612023          	sw	s6,480(sp)
 4001388:	1d712e23          	sw	s7,476(sp)
 400138c:	1d912a23          	sw	s9,468(sp)
 4001390:	1db12623          	sw	s11,460(sp)
 4001394:	00050d13          	mv	s10,a0
 4001398:	1a0060ef          	jal	ra,4007538 <_localeconv_r>
 400139c:	00052783          	lw	a5,0(a0)
 40013a0:	00078513          	mv	a0,a5
 40013a4:	02f12623          	sw	a5,44(sp)
 40013a8:	7e1060ef          	jal	ra,4008388 <strlen>
 40013ac:	02a12423          	sw	a0,40(sp)
 40013b0:	10012023          	sw	zero,256(sp)
 40013b4:	10012223          	sw	zero,260(sp)
 40013b8:	10012423          	sw	zero,264(sp)
 40013bc:	10012623          	sw	zero,268(sp)
 40013c0:	000d0663          	beqz	s10,40013cc <_vfprintf_r+0x7c>
 40013c4:	038d2783          	lw	a5,56(s10)
 40013c8:	0e0788e3          	beqz	a5,4001cb8 <_vfprintf_r+0x968>
 40013cc:	00cc1703          	lh	a4,12(s8)
 40013d0:	000026b7          	lui	a3,0x2
 40013d4:	01071793          	slli	a5,a4,0x10
 40013d8:	0107d793          	srli	a5,a5,0x10
 40013dc:	00d7f633          	and	a2,a5,a3
 40013e0:	02061863          	bnez	a2,4001410 <_vfprintf_r+0xc0>
 40013e4:	064c2603          	lw	a2,100(s8)
 40013e8:	00d767b3          	or	a5,a4,a3
 40013ec:	01079793          	slli	a5,a5,0x10
 40013f0:	ffffe737          	lui	a4,0xffffe
 40013f4:	4107d793          	srai	a5,a5,0x10
 40013f8:	fff70713          	addi	a4,a4,-1 # ffffdfff <__stack+0xf9ffdfff>
 40013fc:	00e67733          	and	a4,a2,a4
 4001400:	00fc1623          	sh	a5,12(s8)
 4001404:	01079793          	slli	a5,a5,0x10
 4001408:	06ec2223          	sw	a4,100(s8)
 400140c:	0107d793          	srli	a5,a5,0x10
 4001410:	0087f713          	andi	a4,a5,8
 4001414:	2e070063          	beqz	a4,40016f4 <_vfprintf_r+0x3a4>
 4001418:	010c2703          	lw	a4,16(s8)
 400141c:	2c070c63          	beqz	a4,40016f4 <_vfprintf_r+0x3a4>
 4001420:	01a7f793          	andi	a5,a5,26
 4001424:	00a00713          	li	a4,10
 4001428:	2ee78863          	beq	a5,a4,4001718 <_vfprintf_r+0x3c8>
 400142c:	11c10793          	addi	a5,sp,284
 4001430:	00090b93          	mv	s7,s2
 4001434:	0ef12a23          	sw	a5,244(sp)
 4001438:	00078893          	mv	a7,a5
 400143c:	000bc783          	lbu	a5,0(s7)
 4001440:	0e012e23          	sw	zero,252(sp)
 4001444:	0e012c23          	sw	zero,248(sp)
 4001448:	00012e23          	sw	zero,28(sp)
 400144c:	02012823          	sw	zero,48(sp)
 4001450:	02012a23          	sw	zero,52(sp)
 4001454:	02012c23          	sw	zero,56(sp)
 4001458:	04012223          	sw	zero,68(sp)
 400145c:	04012423          	sw	zero,72(sp)
 4001460:	00012623          	sw	zero,12(sp)
 4001464:	01000a13          	li	s4,16
 4001468:	22078863          	beqz	a5,4001698 <_vfprintf_r+0x348>
 400146c:	000b8413          	mv	s0,s7
 4001470:	02500713          	li	a4,37
 4001474:	30e78c63          	beq	a5,a4,400178c <_vfprintf_r+0x43c>
 4001478:	00144783          	lbu	a5,1(s0)
 400147c:	00140413          	addi	s0,s0,1
 4001480:	fe079ae3          	bnez	a5,4001474 <_vfprintf_r+0x124>
 4001484:	417404b3          	sub	s1,s0,s7
 4001488:	21740863          	beq	s0,s7,4001698 <_vfprintf_r+0x348>
 400148c:	0fc12703          	lw	a4,252(sp)
 4001490:	0f812783          	lw	a5,248(sp)
 4001494:	0178a023          	sw	s7,0(a7)
 4001498:	00970733          	add	a4,a4,s1
 400149c:	00178793          	addi	a5,a5,1
 40014a0:	0098a223          	sw	s1,4(a7)
 40014a4:	0ee12e23          	sw	a4,252(sp)
 40014a8:	0ef12c23          	sw	a5,248(sp)
 40014ac:	00700713          	li	a4,7
 40014b0:	00888893          	addi	a7,a7,8
 40014b4:	2ef74463          	blt	a4,a5,400179c <_vfprintf_r+0x44c>
 40014b8:	00c12703          	lw	a4,12(sp)
 40014bc:	00044783          	lbu	a5,0(s0)
 40014c0:	00970733          	add	a4,a4,s1
 40014c4:	00e12623          	sw	a4,12(sp)
 40014c8:	1c078863          	beqz	a5,4001698 <_vfprintf_r+0x348>
 40014cc:	00144483          	lbu	s1,1(s0)
 40014d0:	0c010ba3          	sb	zero,215(sp)
 40014d4:	00140413          	addi	s0,s0,1
 40014d8:	fff00c93          	li	s9,-1
 40014dc:	00000993          	li	s3,0
 40014e0:	00000a93          	li	s5,0
 40014e4:	00900913          	li	s2,9
 40014e8:	02a00b13          	li	s6,42
 40014ec:	00088d93          	mv	s11,a7
 40014f0:	00140413          	addi	s0,s0,1
 40014f4:	05a00713          	li	a4,90
 40014f8:	fe048793          	addi	a5,s1,-32
 40014fc:	04f76863          	bltu	a4,a5,400154c <_vfprintf_r+0x1fc>
 4001500:	00011697          	auipc	a3,0x11
 4001504:	e7468693          	addi	a3,a3,-396 # 4012374 <__clz_tab+0x144>
 4001508:	00279793          	slli	a5,a5,0x2
 400150c:	00d787b3          	add	a5,a5,a3
 4001510:	0007a783          	lw	a5,0(a5)
 4001514:	00d787b3          	add	a5,a5,a3
 4001518:	00078067          	jr	a5
 400151c:	00000993          	li	s3,0
 4001520:	fd048613          	addi	a2,s1,-48
 4001524:	00044483          	lbu	s1,0(s0)
 4001528:	00299793          	slli	a5,s3,0x2
 400152c:	013787b3          	add	a5,a5,s3
 4001530:	00179793          	slli	a5,a5,0x1
 4001534:	00f609b3          	add	s3,a2,a5
 4001538:	fd048613          	addi	a2,s1,-48
 400153c:	00140413          	addi	s0,s0,1
 4001540:	fec972e3          	bgeu	s2,a2,4001524 <_vfprintf_r+0x1d4>
 4001544:	fe048793          	addi	a5,s1,-32
 4001548:	faf77ce3          	bgeu	a4,a5,4001500 <_vfprintf_r+0x1b0>
 400154c:	000d8893          	mv	a7,s11
 4001550:	14048463          	beqz	s1,4001698 <_vfprintf_r+0x348>
 4001554:	14910e23          	sb	s1,348(sp)
 4001558:	0c010ba3          	sb	zero,215(sp)
 400155c:	00100b13          	li	s6,1
 4001560:	00100913          	li	s2,1
 4001564:	15c10b93          	addi	s7,sp,348
 4001568:	00012823          	sw	zero,16(sp)
 400156c:	00000c93          	li	s9,0
 4001570:	02012223          	sw	zero,36(sp)
 4001574:	02012023          	sw	zero,32(sp)
 4001578:	00012c23          	sw	zero,24(sp)
 400157c:	002aff13          	andi	t5,s5,2
 4001580:	000f0463          	beqz	t5,4001588 <_vfprintf_r+0x238>
 4001584:	002b0b13          	addi	s6,s6,2
 4001588:	084afe93          	andi	t4,s5,132
 400158c:	0fc12783          	lw	a5,252(sp)
 4001590:	000e9663          	bnez	t4,400159c <_vfprintf_r+0x24c>
 4001594:	416986b3          	sub	a3,s3,s6
 4001598:	62d048e3          	bgtz	a3,40023c8 <_vfprintf_r+0x1078>
 400159c:	0d714703          	lbu	a4,215(sp)
 40015a0:	02070a63          	beqz	a4,40015d4 <_vfprintf_r+0x284>
 40015a4:	0f812703          	lw	a4,248(sp)
 40015a8:	0d710693          	addi	a3,sp,215
 40015ac:	00d8a023          	sw	a3,0(a7)
 40015b0:	00178793          	addi	a5,a5,1
 40015b4:	00100693          	li	a3,1
 40015b8:	00170713          	addi	a4,a4,1
 40015bc:	00d8a223          	sw	a3,4(a7)
 40015c0:	0ef12e23          	sw	a5,252(sp)
 40015c4:	0ee12c23          	sw	a4,248(sp)
 40015c8:	00700693          	li	a3,7
 40015cc:	00888893          	addi	a7,a7,8
 40015d0:	4ee6c063          	blt	a3,a4,4001ab0 <_vfprintf_r+0x760>
 40015d4:	020f0a63          	beqz	t5,4001608 <_vfprintf_r+0x2b8>
 40015d8:	0f812703          	lw	a4,248(sp)
 40015dc:	0d810693          	addi	a3,sp,216
 40015e0:	00d8a023          	sw	a3,0(a7)
 40015e4:	00278793          	addi	a5,a5,2
 40015e8:	00200693          	li	a3,2
 40015ec:	00170713          	addi	a4,a4,1
 40015f0:	00d8a223          	sw	a3,4(a7)
 40015f4:	0ef12e23          	sw	a5,252(sp)
 40015f8:	0ee12c23          	sw	a4,248(sp)
 40015fc:	00700693          	li	a3,7
 4001600:	00888893          	addi	a7,a7,8
 4001604:	6ee6c6e3          	blt	a3,a4,40024f0 <_vfprintf_r+0x11a0>
 4001608:	08000713          	li	a4,128
 400160c:	42ee80e3          	beq	t4,a4,400222c <_vfprintf_r+0xedc>
 4001610:	412c8cb3          	sub	s9,s9,s2
 4001614:	4d904ce3          	bgtz	s9,40022ec <_vfprintf_r+0xf9c>
 4001618:	100af713          	andi	a4,s5,256
 400161c:	2c071ce3          	bnez	a4,40020f4 <_vfprintf_r+0xda4>
 4001620:	0f812703          	lw	a4,248(sp)
 4001624:	012787b3          	add	a5,a5,s2
 4001628:	0178a023          	sw	s7,0(a7)
 400162c:	00170713          	addi	a4,a4,1
 4001630:	0128a223          	sw	s2,4(a7)
 4001634:	0ef12e23          	sw	a5,252(sp)
 4001638:	0ee12c23          	sw	a4,248(sp)
 400163c:	00700693          	li	a3,7
 4001640:	5ae6ca63          	blt	a3,a4,4001bf4 <_vfprintf_r+0x8a4>
 4001644:	00888893          	addi	a7,a7,8
 4001648:	004afa93          	andi	s5,s5,4
 400164c:	000a8663          	beqz	s5,4001658 <_vfprintf_r+0x308>
 4001650:	416984b3          	sub	s1,s3,s6
 4001654:	5c904063          	bgtz	s1,4001c14 <_vfprintf_r+0x8c4>
 4001658:	0169d463          	bge	s3,s6,4001660 <_vfprintf_r+0x310>
 400165c:	000b0993          	mv	s3,s6
 4001660:	00c12703          	lw	a4,12(sp)
 4001664:	01370733          	add	a4,a4,s3
 4001668:	00e12623          	sw	a4,12(sp)
 400166c:	52079ae3          	bnez	a5,40023a0 <_vfprintf_r+0x1050>
 4001670:	01012783          	lw	a5,16(sp)
 4001674:	0e012c23          	sw	zero,248(sp)
 4001678:	00078863          	beqz	a5,4001688 <_vfprintf_r+0x338>
 400167c:	01012583          	lw	a1,16(sp)
 4001680:	000d0513          	mv	a0,s10
 4001684:	70d020ef          	jal	ra,4004590 <_free_r>
 4001688:	11c10893          	addi	a7,sp,284
 400168c:	00040b93          	mv	s7,s0
 4001690:	000bc783          	lbu	a5,0(s7)
 4001694:	dc079ce3          	bnez	a5,400146c <_vfprintf_r+0x11c>
 4001698:	0fc12783          	lw	a5,252(sp)
 400169c:	00078463          	beqz	a5,40016a4 <_vfprintf_r+0x354>
 40016a0:	3010106f          	j	40031a0 <_vfprintf_r+0x1e50>
 40016a4:	00cc5783          	lhu	a5,12(s8)
 40016a8:	0407f793          	andi	a5,a5,64
 40016ac:	00078463          	beqz	a5,40016b4 <_vfprintf_r+0x364>
 40016b0:	2e40206f          	j	4003994 <_vfprintf_r+0x2644>
 40016b4:	1fc12083          	lw	ra,508(sp)
 40016b8:	1f812403          	lw	s0,504(sp)
 40016bc:	00c12503          	lw	a0,12(sp)
 40016c0:	1f412483          	lw	s1,500(sp)
 40016c4:	1f012903          	lw	s2,496(sp)
 40016c8:	1ec12983          	lw	s3,492(sp)
 40016cc:	1e812a03          	lw	s4,488(sp)
 40016d0:	1e412a83          	lw	s5,484(sp)
 40016d4:	1e012b03          	lw	s6,480(sp)
 40016d8:	1dc12b83          	lw	s7,476(sp)
 40016dc:	1d812c03          	lw	s8,472(sp)
 40016e0:	1d412c83          	lw	s9,468(sp)
 40016e4:	1d012d03          	lw	s10,464(sp)
 40016e8:	1cc12d83          	lw	s11,460(sp)
 40016ec:	20010113          	addi	sp,sp,512
 40016f0:	00008067          	ret
 40016f4:	000c0593          	mv	a1,s8
 40016f8:	000d0513          	mv	a0,s10
 40016fc:	77c020ef          	jal	ra,4003e78 <__swsetup_r>
 4001700:	00050463          	beqz	a0,4001708 <_vfprintf_r+0x3b8>
 4001704:	2900206f          	j	4003994 <_vfprintf_r+0x2644>
 4001708:	00cc5783          	lhu	a5,12(s8)
 400170c:	00a00713          	li	a4,10
 4001710:	01a7f793          	andi	a5,a5,26
 4001714:	d0e79ce3          	bne	a5,a4,400142c <_vfprintf_r+0xdc>
 4001718:	00ec1783          	lh	a5,14(s8)
 400171c:	d007c8e3          	bltz	a5,400142c <_vfprintf_r+0xdc>
 4001720:	01412683          	lw	a3,20(sp)
 4001724:	00090613          	mv	a2,s2
 4001728:	000c0593          	mv	a1,s8
 400172c:	000d0513          	mv	a0,s10
 4001730:	688020ef          	jal	ra,4003db8 <__sbprintf>
 4001734:	00a12623          	sw	a0,12(sp)
 4001738:	f7dff06f          	j	40016b4 <_vfprintf_r+0x364>
 400173c:	000d0513          	mv	a0,s10
 4001740:	5f9050ef          	jal	ra,4007538 <_localeconv_r>
 4001744:	00452783          	lw	a5,4(a0)
 4001748:	00078513          	mv	a0,a5
 400174c:	04f12423          	sw	a5,72(sp)
 4001750:	439060ef          	jal	ra,4008388 <strlen>
 4001754:	00050793          	mv	a5,a0
 4001758:	000d0513          	mv	a0,s10
 400175c:	00078493          	mv	s1,a5
 4001760:	04f12223          	sw	a5,68(sp)
 4001764:	5d5050ef          	jal	ra,4007538 <_localeconv_r>
 4001768:	00852783          	lw	a5,8(a0)
 400176c:	02f12c23          	sw	a5,56(sp)
 4001770:	00048463          	beqz	s1,4001778 <_vfprintf_r+0x428>
 4001774:	08c0106f          	j	4002800 <_vfprintf_r+0x14b0>
 4001778:	00044483          	lbu	s1,0(s0)
 400177c:	d75ff06f          	j	40014f0 <_vfprintf_r+0x1a0>
 4001780:	00044483          	lbu	s1,0(s0)
 4001784:	020aea93          	ori	s5,s5,32
 4001788:	d69ff06f          	j	40014f0 <_vfprintf_r+0x1a0>
 400178c:	417404b3          	sub	s1,s0,s7
 4001790:	cf741ee3          	bne	s0,s7,400148c <_vfprintf_r+0x13c>
 4001794:	00044783          	lbu	a5,0(s0)
 4001798:	d31ff06f          	j	40014c8 <_vfprintf_r+0x178>
 400179c:	0f410613          	addi	a2,sp,244
 40017a0:	000c0593          	mv	a1,s8
 40017a4:	000d0513          	mv	a0,s10
 40017a8:	02d090ef          	jal	ra,400afd4 <__sprint_r>
 40017ac:	ee051ce3          	bnez	a0,40016a4 <_vfprintf_r+0x354>
 40017b0:	11c10893          	addi	a7,sp,284
 40017b4:	d05ff06f          	j	40014b8 <_vfprintf_r+0x168>
 40017b8:	008af793          	andi	a5,s5,8
 40017bc:	000d8893          	mv	a7,s11
 40017c0:	00078463          	beqz	a5,40017c8 <_vfprintf_r+0x478>
 40017c4:	0780106f          	j	400283c <_vfprintf_r+0x14ec>
 40017c8:	01412783          	lw	a5,20(sp)
 40017cc:	0c010513          	addi	a0,sp,192
 40017d0:	01b12823          	sw	s11,16(sp)
 40017d4:	00778793          	addi	a5,a5,7
 40017d8:	ff87f793          	andi	a5,a5,-8
 40017dc:	0007a583          	lw	a1,0(a5)
 40017e0:	0047a603          	lw	a2,4(a5)
 40017e4:	00878793          	addi	a5,a5,8
 40017e8:	00f12a23          	sw	a5,20(sp)
 40017ec:	5f90f0ef          	jal	ra,40115e4 <__extenddftf2>
 40017f0:	0c012783          	lw	a5,192(sp)
 40017f4:	01012883          	lw	a7,16(sp)
 40017f8:	10f12023          	sw	a5,256(sp)
 40017fc:	0c412783          	lw	a5,196(sp)
 4001800:	10f12223          	sw	a5,260(sp)
 4001804:	0c812783          	lw	a5,200(sp)
 4001808:	10f12423          	sw	a5,264(sp)
 400180c:	0cc12783          	lw	a5,204(sp)
 4001810:	10f12623          	sw	a5,268(sp)
 4001814:	10010513          	addi	a0,sp,256
 4001818:	01112823          	sw	a7,16(sp)
 400181c:	4a5050ef          	jal	ra,40074c0 <_ldcheck>
 4001820:	0ca12e23          	sw	a0,220(sp)
 4001824:	00200793          	li	a5,2
 4001828:	01012883          	lw	a7,16(sp)
 400182c:	00f51463          	bne	a0,a5,4001834 <_vfprintf_r+0x4e4>
 4001830:	4540106f          	j	4002c84 <_vfprintf_r+0x1934>
 4001834:	00100793          	li	a5,1
 4001838:	00f51463          	bne	a0,a5,4001840 <_vfprintf_r+0x4f0>
 400183c:	5f80106f          	j	4002e34 <_vfprintf_r+0x1ae4>
 4001840:	06100793          	li	a5,97
 4001844:	00f49463          	bne	s1,a5,400184c <_vfprintf_r+0x4fc>
 4001848:	2740206f          	j	4003abc <_vfprintf_r+0x276c>
 400184c:	04100793          	li	a5,65
 4001850:	00f49463          	bne	s1,a5,4001858 <_vfprintf_r+0x508>
 4001854:	1890106f          	j	40031dc <_vfprintf_r+0x1e8c>
 4001858:	fdf4f713          	andi	a4,s1,-33
 400185c:	fff00793          	li	a5,-1
 4001860:	02e12e23          	sw	a4,60(sp)
 4001864:	00fc9463          	bne	s9,a5,400186c <_vfprintf_r+0x51c>
 4001868:	29c0206f          	j	4003b04 <_vfprintf_r+0x27b4>
 400186c:	04700793          	li	a5,71
 4001870:	00f71463          	bne	a4,a5,4001878 <_vfprintf_r+0x528>
 4001874:	2980206f          	j	4003b0c <_vfprintf_r+0x27bc>
 4001878:	10c12e03          	lw	t3,268(sp)
 400187c:	05512823          	sw	s5,80(sp)
 4001880:	10012e83          	lw	t4,256(sp)
 4001884:	10412f03          	lw	t5,260(sp)
 4001888:	10812f83          	lw	t6,264(sp)
 400188c:	100ae793          	ori	a5,s5,256
 4001890:	000e5463          	bgez	t3,4001898 <_vfprintf_r+0x548>
 4001894:	6190106f          	j	40036ac <_vfprintf_r+0x235c>
 4001898:	06012423          	sw	zero,104(sp)
 400189c:	00078a93          	mv	s5,a5
 40018a0:	00012823          	sw	zero,16(sp)
 40018a4:	03c12703          	lw	a4,60(sp)
 40018a8:	04600793          	li	a5,70
 40018ac:	00f71463          	bne	a4,a5,40018b4 <_vfprintf_r+0x564>
 40018b0:	6410106f          	j	40036f0 <_vfprintf_r+0x23a0>
 40018b4:	04500793          	li	a5,69
 40018b8:	05112023          	sw	a7,64(sp)
 40018bc:	00f71463          	bne	a4,a5,40018c4 <_vfprintf_r+0x574>
 40018c0:	0e00206f          	j	40039a0 <_vfprintf_r+0x2650>
 40018c4:	0c010b13          	addi	s6,sp,192
 40018c8:	0e010793          	addi	a5,sp,224
 40018cc:	0dc10713          	addi	a4,sp,220
 40018d0:	0ec10813          	addi	a6,sp,236
 40018d4:	000c8693          	mv	a3,s9
 40018d8:	00200613          	li	a2,2
 40018dc:	000b0593          	mv	a1,s6
 40018e0:	000d0513          	mv	a0,s10
 40018e4:	0dd12023          	sw	t4,192(sp)
 40018e8:	03d12223          	sw	t4,36(sp)
 40018ec:	0de12223          	sw	t5,196(sp)
 40018f0:	03e12023          	sw	t5,32(sp)
 40018f4:	0df12423          	sw	t6,200(sp)
 40018f8:	01f12e23          	sw	t6,28(sp)
 40018fc:	0dc12623          	sw	t3,204(sp)
 4001900:	01c12c23          	sw	t3,24(sp)
 4001904:	13d040ef          	jal	ra,4006240 <_ldtoa_r>
 4001908:	03c12703          	lw	a4,60(sp)
 400190c:	04700793          	li	a5,71
 4001910:	01812e03          	lw	t3,24(sp)
 4001914:	01c12f83          	lw	t6,28(sp)
 4001918:	02012f03          	lw	t5,32(sp)
 400191c:	02412e83          	lw	t4,36(sp)
 4001920:	04012883          	lw	a7,64(sp)
 4001924:	00050b93          	mv	s7,a0
 4001928:	00f70463          	beq	a4,a5,4001930 <_vfprintf_r+0x5e0>
 400192c:	45c0206f          	j	4003d88 <_vfprintf_r+0x2a38>
 4001930:	05012783          	lw	a5,80(sp)
 4001934:	0017f793          	andi	a5,a5,1
 4001938:	00078463          	beqz	a5,4001940 <_vfprintf_r+0x5f0>
 400193c:	1bc0206f          	j	4003af8 <_vfprintf_r+0x27a8>
 4001940:	0ec12783          	lw	a5,236(sp)
 4001944:	417787b3          	sub	a5,a5,s7
 4001948:	00f12e23          	sw	a5,28(sp)
 400194c:	0dc12703          	lw	a4,220(sp)
 4001950:	04700793          	li	a5,71
 4001954:	00e12c23          	sw	a4,24(sp)
 4001958:	03c12703          	lw	a4,60(sp)
 400195c:	00f71463          	bne	a4,a5,4001964 <_vfprintf_r+0x614>
 4001960:	4bd0106f          	j	400361c <_vfprintf_r+0x22cc>
 4001964:	03c12703          	lw	a4,60(sp)
 4001968:	04600793          	li	a5,70
 400196c:	00f71463          	bne	a4,a5,4001974 <_vfprintf_r+0x624>
 4001970:	7950106f          	j	4003904 <_vfprintf_r+0x25b4>
 4001974:	01812783          	lw	a5,24(sp)
 4001978:	03c12583          	lw	a1,60(sp)
 400197c:	04100613          	li	a2,65
 4001980:	fff78793          	addi	a5,a5,-1
 4001984:	0cf12e23          	sw	a5,220(sp)
 4001988:	0ff4f713          	zext.b	a4,s1
 400198c:	00000693          	li	a3,0
 4001990:	00c59863          	bne	a1,a2,40019a0 <_vfprintf_r+0x650>
 4001994:	00f70713          	addi	a4,a4,15
 4001998:	0ff77713          	zext.b	a4,a4
 400199c:	00100693          	li	a3,1
 40019a0:	0ee10223          	sb	a4,228(sp)
 40019a4:	02b00713          	li	a4,43
 40019a8:	0007da63          	bgez	a5,40019bc <_vfprintf_r+0x66c>
 40019ac:	01812703          	lw	a4,24(sp)
 40019b0:	00100793          	li	a5,1
 40019b4:	40e787b3          	sub	a5,a5,a4
 40019b8:	02d00713          	li	a4,45
 40019bc:	0ee102a3          	sb	a4,229(sp)
 40019c0:	00900713          	li	a4,9
 40019c4:	00f74463          	blt	a4,a5,40019cc <_vfprintf_r+0x67c>
 40019c8:	1e80206f          	j	4003bb0 <_vfprintf_r+0x2860>
 40019cc:	0f310513          	addi	a0,sp,243
 40019d0:	00050593          	mv	a1,a0
 40019d4:	00a00693          	li	a3,10
 40019d8:	06300e13          	li	t3,99
 40019dc:	02d7e733          	rem	a4,a5,a3
 40019e0:	00058613          	mv	a2,a1
 40019e4:	00078813          	mv	a6,a5
 40019e8:	fff58593          	addi	a1,a1,-1
 40019ec:	03070713          	addi	a4,a4,48
 40019f0:	fee60fa3          	sb	a4,-1(a2)
 40019f4:	02d7c7b3          	div	a5,a5,a3
 40019f8:	ff0e42e3          	blt	t3,a6,40019dc <_vfprintf_r+0x68c>
 40019fc:	03078793          	addi	a5,a5,48
 4001a00:	0ff7f693          	zext.b	a3,a5
 4001a04:	fed58fa3          	sb	a3,-1(a1)
 4001a08:	ffe60793          	addi	a5,a2,-2
 4001a0c:	00a7e463          	bltu	a5,a0,4001a14 <_vfprintf_r+0x6c4>
 4001a10:	3900206f          	j	4003da0 <_vfprintf_r+0x2a50>
 4001a14:	0e610713          	addi	a4,sp,230
 4001a18:	0080006f          	j	4001a20 <_vfprintf_r+0x6d0>
 4001a1c:	0007c683          	lbu	a3,0(a5)
 4001a20:	00d70023          	sb	a3,0(a4)
 4001a24:	00178793          	addi	a5,a5,1
 4001a28:	00170713          	addi	a4,a4,1
 4001a2c:	fea798e3          	bne	a5,a0,4001a1c <_vfprintf_r+0x6cc>
 4001a30:	0f510793          	addi	a5,sp,245
 4001a34:	0e610713          	addi	a4,sp,230
 4001a38:	40c787b3          	sub	a5,a5,a2
 4001a3c:	00f707b3          	add	a5,a4,a5
 4001a40:	0e410713          	addi	a4,sp,228
 4001a44:	40e787b3          	sub	a5,a5,a4
 4001a48:	02f12a23          	sw	a5,52(sp)
 4001a4c:	03412683          	lw	a3,52(sp)
 4001a50:	01c12703          	lw	a4,28(sp)
 4001a54:	00100793          	li	a5,1
 4001a58:	00e68933          	add	s2,a3,a4
 4001a5c:	00e7c463          	blt	a5,a4,4001a64 <_vfprintf_r+0x714>
 4001a60:	2b40206f          	j	4003d14 <_vfprintf_r+0x29c4>
 4001a64:	02812783          	lw	a5,40(sp)
 4001a68:	00f90933          	add	s2,s2,a5
 4001a6c:	05012783          	lw	a5,80(sp)
 4001a70:	fff94b13          	not	s6,s2
 4001a74:	41fb5b13          	srai	s6,s6,0x1f
 4001a78:	bff7fa93          	andi	s5,a5,-1025
 4001a7c:	100aea93          	ori	s5,s5,256
 4001a80:	01697b33          	and	s6,s2,s6
 4001a84:	02012223          	sw	zero,36(sp)
 4001a88:	02012023          	sw	zero,32(sp)
 4001a8c:	00012c23          	sw	zero,24(sp)
 4001a90:	06812783          	lw	a5,104(sp)
 4001a94:	00079463          	bnez	a5,4001a9c <_vfprintf_r+0x74c>
 4001a98:	3f90106f          	j	4003690 <_vfprintf_r+0x2340>
 4001a9c:	02d00793          	li	a5,45
 4001aa0:	0cf10ba3          	sb	a5,215(sp)
 4001aa4:	00000c93          	li	s9,0
 4001aa8:	001b0b13          	addi	s6,s6,1
 4001aac:	ad1ff06f          	j	400157c <_vfprintf_r+0x22c>
 4001ab0:	0f410613          	addi	a2,sp,244
 4001ab4:	000c0593          	mv	a1,s8
 4001ab8:	000d0513          	mv	a0,s10
 4001abc:	05d12023          	sw	t4,64(sp)
 4001ac0:	03e12e23          	sw	t5,60(sp)
 4001ac4:	510090ef          	jal	ra,400afd4 <__sprint_r>
 4001ac8:	0e0516e3          	bnez	a0,40023b4 <_vfprintf_r+0x1064>
 4001acc:	0fc12783          	lw	a5,252(sp)
 4001ad0:	04012e83          	lw	t4,64(sp)
 4001ad4:	03c12f03          	lw	t5,60(sp)
 4001ad8:	11c10893          	addi	a7,sp,284
 4001adc:	af9ff06f          	j	40015d4 <_vfprintf_r+0x284>
 4001ae0:	0f812703          	lw	a4,248(sp)
 4001ae4:	00178c93          	addi	s9,a5,1
 4001ae8:	01c12783          	lw	a5,28(sp)
 4001aec:	00100693          	li	a3,1
 4001af0:	0178a023          	sw	s7,0(a7)
 4001af4:	00170493          	addi	s1,a4,1
 4001af8:	00888913          	addi	s2,a7,8
 4001afc:	38f6dce3          	bge	a3,a5,4002694 <_vfprintf_r+0x1344>
 4001b00:	00100793          	li	a5,1
 4001b04:	00f8a223          	sw	a5,4(a7)
 4001b08:	0f912e23          	sw	s9,252(sp)
 4001b0c:	0e912c23          	sw	s1,248(sp)
 4001b10:	00700793          	li	a5,7
 4001b14:	7697c2e3          	blt	a5,s1,4002a78 <_vfprintf_r+0x1728>
 4001b18:	02812783          	lw	a5,40(sp)
 4001b1c:	02c12703          	lw	a4,44(sp)
 4001b20:	00148493          	addi	s1,s1,1
 4001b24:	00fc8cb3          	add	s9,s9,a5
 4001b28:	00f92223          	sw	a5,4(s2)
 4001b2c:	00e92023          	sw	a4,0(s2)
 4001b30:	0f912e23          	sw	s9,252(sp)
 4001b34:	0e912c23          	sw	s1,248(sp)
 4001b38:	00700793          	li	a5,7
 4001b3c:	00890913          	addi	s2,s2,8
 4001b40:	7497cee3          	blt	a5,s1,4002a9c <_vfprintf_r+0x174c>
 4001b44:	10012783          	lw	a5,256(sp)
 4001b48:	00148693          	addi	a3,s1,1
 4001b4c:	0b010593          	addi	a1,sp,176
 4001b50:	0cf12023          	sw	a5,192(sp)
 4001b54:	10412783          	lw	a5,260(sp)
 4001b58:	0c010513          	addi	a0,sp,192
 4001b5c:	00d12c23          	sw	a3,24(sp)
 4001b60:	0cf12223          	sw	a5,196(sp)
 4001b64:	10812783          	lw	a5,264(sp)
 4001b68:	0a012823          	sw	zero,176(sp)
 4001b6c:	0a012a23          	sw	zero,180(sp)
 4001b70:	0cf12423          	sw	a5,200(sp)
 4001b74:	10c12783          	lw	a5,268(sp)
 4001b78:	0a012c23          	sw	zero,184(sp)
 4001b7c:	0a012e23          	sw	zero,188(sp)
 4001b80:	0cf12623          	sw	a5,204(sp)
 4001b84:	5c50c0ef          	jal	ra,400e948 <__eqtf2>
 4001b88:	01812683          	lw	a3,24(sp)
 4001b8c:	01c12783          	lw	a5,28(sp)
 4001b90:	00890893          	addi	a7,s2,8
 4001b94:	00068713          	mv	a4,a3
 4001b98:	fff78d93          	addi	s11,a5,-1
 4001b9c:	320500e3          	beqz	a0,40026bc <_vfprintf_r+0x136c>
 4001ba0:	001b8813          	addi	a6,s7,1
 4001ba4:	01bc8cb3          	add	s9,s9,s11
 4001ba8:	01092023          	sw	a6,0(s2)
 4001bac:	01b92223          	sw	s11,4(s2)
 4001bb0:	0f912e23          	sw	s9,252(sp)
 4001bb4:	0ed12c23          	sw	a3,248(sp)
 4001bb8:	00700793          	li	a5,7
 4001bbc:	52d7c2e3          	blt	a5,a3,40028e0 <_vfprintf_r+0x1590>
 4001bc0:	01090793          	addi	a5,s2,16
 4001bc4:	00248713          	addi	a4,s1,2
 4001bc8:	00088913          	mv	s2,a7
 4001bcc:	00078893          	mv	a7,a5
 4001bd0:	03412603          	lw	a2,52(sp)
 4001bd4:	0e410693          	addi	a3,sp,228
 4001bd8:	00d92023          	sw	a3,0(s2)
 4001bdc:	019607b3          	add	a5,a2,s9
 4001be0:	00c92223          	sw	a2,4(s2)
 4001be4:	0ef12e23          	sw	a5,252(sp)
 4001be8:	0ee12c23          	sw	a4,248(sp)
 4001bec:	00700693          	li	a3,7
 4001bf0:	a4e6dce3          	bge	a3,a4,4001648 <_vfprintf_r+0x2f8>
 4001bf4:	0f410613          	addi	a2,sp,244
 4001bf8:	000c0593          	mv	a1,s8
 4001bfc:	000d0513          	mv	a0,s10
 4001c00:	3d4090ef          	jal	ra,400afd4 <__sprint_r>
 4001c04:	7a051863          	bnez	a0,40023b4 <_vfprintf_r+0x1064>
 4001c08:	0fc12783          	lw	a5,252(sp)
 4001c0c:	11c10893          	addi	a7,sp,284
 4001c10:	a39ff06f          	j	4001648 <_vfprintf_r+0x2f8>
 4001c14:	0f812703          	lw	a4,248(sp)
 4001c18:	00011d97          	auipc	s11,0x11
 4001c1c:	8f8d8d93          	addi	s11,s11,-1800 # 4012510 <blanks.1>
 4001c20:	00700913          	li	s2,7
 4001c24:	009a4863          	blt	s4,s1,4001c34 <_vfprintf_r+0x8e4>
 4001c28:	0540006f          	j	4001c7c <_vfprintf_r+0x92c>
 4001c2c:	ff048493          	addi	s1,s1,-16
 4001c30:	049a5663          	bge	s4,s1,4001c7c <_vfprintf_r+0x92c>
 4001c34:	01078793          	addi	a5,a5,16
 4001c38:	00170713          	addi	a4,a4,1
 4001c3c:	01b8a023          	sw	s11,0(a7)
 4001c40:	0148a223          	sw	s4,4(a7)
 4001c44:	0ef12e23          	sw	a5,252(sp)
 4001c48:	0ee12c23          	sw	a4,248(sp)
 4001c4c:	00888893          	addi	a7,a7,8
 4001c50:	fce95ee3          	bge	s2,a4,4001c2c <_vfprintf_r+0x8dc>
 4001c54:	0f410613          	addi	a2,sp,244
 4001c58:	000c0593          	mv	a1,s8
 4001c5c:	000d0513          	mv	a0,s10
 4001c60:	374090ef          	jal	ra,400afd4 <__sprint_r>
 4001c64:	74051863          	bnez	a0,40023b4 <_vfprintf_r+0x1064>
 4001c68:	ff048493          	addi	s1,s1,-16
 4001c6c:	0fc12783          	lw	a5,252(sp)
 4001c70:	0f812703          	lw	a4,248(sp)
 4001c74:	11c10893          	addi	a7,sp,284
 4001c78:	fa9a4ee3          	blt	s4,s1,4001c34 <_vfprintf_r+0x8e4>
 4001c7c:	009787b3          	add	a5,a5,s1
 4001c80:	00170713          	addi	a4,a4,1
 4001c84:	01b8a023          	sw	s11,0(a7)
 4001c88:	0098a223          	sw	s1,4(a7)
 4001c8c:	0ef12e23          	sw	a5,252(sp)
 4001c90:	0ee12c23          	sw	a4,248(sp)
 4001c94:	00700693          	li	a3,7
 4001c98:	9ce6d0e3          	bge	a3,a4,4001658 <_vfprintf_r+0x308>
 4001c9c:	0f410613          	addi	a2,sp,244
 4001ca0:	000c0593          	mv	a1,s8
 4001ca4:	000d0513          	mv	a0,s10
 4001ca8:	32c090ef          	jal	ra,400afd4 <__sprint_r>
 4001cac:	70051463          	bnez	a0,40023b4 <_vfprintf_r+0x1064>
 4001cb0:	0fc12783          	lw	a5,252(sp)
 4001cb4:	9a5ff06f          	j	4001658 <_vfprintf_r+0x308>
 4001cb8:	000d0513          	mv	a0,s10
 4001cbc:	77c020ef          	jal	ra,4004438 <__sinit>
 4001cc0:	f0cff06f          	j	40013cc <_vfprintf_r+0x7c>
 4001cc4:	01412703          	lw	a4,20(sp)
 4001cc8:	000d8893          	mv	a7,s11
 4001ccc:	0c010ba3          	sb	zero,215(sp)
 4001cd0:	00072783          	lw	a5,0(a4)
 4001cd4:	00470713          	addi	a4,a4,4
 4001cd8:	00e12a23          	sw	a4,20(sp)
 4001cdc:	14f10e23          	sb	a5,348(sp)
 4001ce0:	00100b13          	li	s6,1
 4001ce4:	00100913          	li	s2,1
 4001ce8:	15c10b93          	addi	s7,sp,348
 4001cec:	87dff06f          	j	4001568 <_vfprintf_r+0x218>
 4001cf0:	01412783          	lw	a5,20(sp)
 4001cf4:	0c010ba3          	sb	zero,215(sp)
 4001cf8:	000d8893          	mv	a7,s11
 4001cfc:	0007ab83          	lw	s7,0(a5)
 4001d00:	00478d93          	addi	s11,a5,4
 4001d04:	4c0b88e3          	beqz	s7,40029d4 <_vfprintf_r+0x1684>
 4001d08:	fff00793          	li	a5,-1
 4001d0c:	00fc9463          	bne	s9,a5,4001d14 <_vfprintf_r+0x9c4>
 4001d10:	0640106f          	j	4002d74 <_vfprintf_r+0x1a24>
 4001d14:	000c8613          	mv	a2,s9
 4001d18:	00000593          	li	a1,0
 4001d1c:	000b8513          	mv	a0,s7
 4001d20:	01112a23          	sw	a7,20(sp)
 4001d24:	1f0060ef          	jal	ra,4007f14 <memchr>
 4001d28:	00a12823          	sw	a0,16(sp)
 4001d2c:	01412883          	lw	a7,20(sp)
 4001d30:	00051463          	bnez	a0,4001d38 <_vfprintf_r+0x9e8>
 4001d34:	3410106f          	j	4003874 <_vfprintf_r+0x2524>
 4001d38:	01012783          	lw	a5,16(sp)
 4001d3c:	01b12a23          	sw	s11,20(sp)
 4001d40:	00012823          	sw	zero,16(sp)
 4001d44:	41778933          	sub	s2,a5,s7
 4001d48:	0d714783          	lbu	a5,215(sp)
 4001d4c:	fff94b13          	not	s6,s2
 4001d50:	41fb5b13          	srai	s6,s6,0x1f
 4001d54:	02012223          	sw	zero,36(sp)
 4001d58:	02012023          	sw	zero,32(sp)
 4001d5c:	00012c23          	sw	zero,24(sp)
 4001d60:	01697b33          	and	s6,s2,s6
 4001d64:	00000c93          	li	s9,0
 4001d68:	80078ae3          	beqz	a5,400157c <_vfprintf_r+0x22c>
 4001d6c:	001b0b13          	addi	s6,s6,1
 4001d70:	80dff06f          	j	400157c <_vfprintf_r+0x22c>
 4001d74:	00044483          	lbu	s1,0(s0)
 4001d78:	06800793          	li	a5,104
 4001d7c:	3ef48ee3          	beq	s1,a5,4002978 <_vfprintf_r+0x1628>
 4001d80:	040aea93          	ori	s5,s5,64
 4001d84:	f6cff06f          	j	40014f0 <_vfprintf_r+0x1a0>
 4001d88:	01412683          	lw	a3,20(sp)
 4001d8c:	020af793          	andi	a5,s5,32
 4001d90:	000d8893          	mv	a7,s11
 4001d94:	0006a703          	lw	a4,0(a3)
 4001d98:	00468693          	addi	a3,a3,4
 4001d9c:	00d12a23          	sw	a3,20(sp)
 4001da0:	280792e3          	bnez	a5,4002824 <_vfprintf_r+0x14d4>
 4001da4:	010af793          	andi	a5,s5,16
 4001da8:	74079ee3          	bnez	a5,4002d04 <_vfprintf_r+0x19b4>
 4001dac:	040af793          	andi	a5,s5,64
 4001db0:	00078463          	beqz	a5,4001db8 <_vfprintf_r+0xa68>
 4001db4:	3780106f          	j	400312c <_vfprintf_r+0x1ddc>
 4001db8:	200afa93          	andi	s5,s5,512
 4001dbc:	740a84e3          	beqz	s5,4002d04 <_vfprintf_r+0x19b4>
 4001dc0:	00c12783          	lw	a5,12(sp)
 4001dc4:	00040b93          	mv	s7,s0
 4001dc8:	00f70023          	sb	a5,0(a4)
 4001dcc:	8c5ff06f          	j	4001690 <_vfprintf_r+0x340>
 4001dd0:	00044483          	lbu	s1,0(s0)
 4001dd4:	06c00793          	li	a5,108
 4001dd8:	3ef486e3          	beq	s1,a5,40029c4 <_vfprintf_r+0x1674>
 4001ddc:	010aea93          	ori	s5,s5,16
 4001de0:	f10ff06f          	j	40014f0 <_vfprintf_r+0x1a0>
 4001de4:	01412703          	lw	a4,20(sp)
 4001de8:	ffff87b7          	lui	a5,0xffff8
 4001dec:	8307c793          	xori	a5,a5,-2000
 4001df0:	000d8893          	mv	a7,s11
 4001df4:	0cf11c23          	sh	a5,216(sp)
 4001df8:	00072d83          	lw	s11,0(a4)
 4001dfc:	00470793          	addi	a5,a4,4
 4001e00:	00f12a23          	sw	a5,20(sp)
 4001e04:	00010797          	auipc	a5,0x10
 4001e08:	53c78793          	addi	a5,a5,1340 # 4012340 <__clz_tab+0x110>
 4001e0c:	02f12823          	sw	a5,48(sp)
 4001e10:	00000913          	li	s2,0
 4001e14:	002aeb13          	ori	s6,s5,2
 4001e18:	00200793          	li	a5,2
 4001e1c:	07800493          	li	s1,120
 4001e20:	0c010ba3          	sb	zero,215(sp)
 4001e24:	fff00693          	li	a3,-1
 4001e28:	20dc8263          	beq	s9,a3,400202c <_vfprintf_r+0xcdc>
 4001e2c:	012de6b3          	or	a3,s11,s2
 4001e30:	f7fb7a93          	andi	s5,s6,-129
 4001e34:	1e069a63          	bnez	a3,4002028 <_vfprintf_r+0xcd8>
 4001e38:	260c9063          	bnez	s9,4002098 <_vfprintf_r+0xd48>
 4001e3c:	10079863          	bnez	a5,4001f4c <_vfprintf_r+0xbfc>
 4001e40:	001b7913          	andi	s2,s6,1
 4001e44:	1c010b93          	addi	s7,sp,448
 4001e48:	1a0914e3          	bnez	s2,40027f0 <_vfprintf_r+0x14a0>
 4001e4c:	0d714783          	lbu	a5,215(sp)
 4001e50:	000c8b13          	mv	s6,s9
 4001e54:	012cd463          	bge	s9,s2,4001e5c <_vfprintf_r+0xb0c>
 4001e58:	00090b13          	mv	s6,s2
 4001e5c:	00012823          	sw	zero,16(sp)
 4001e60:	02012223          	sw	zero,36(sp)
 4001e64:	02012023          	sw	zero,32(sp)
 4001e68:	00012c23          	sw	zero,24(sp)
 4001e6c:	f00790e3          	bnez	a5,4001d6c <_vfprintf_r+0xa1c>
 4001e70:	f0cff06f          	j	400157c <_vfprintf_r+0x22c>
 4001e74:	000d8893          	mv	a7,s11
 4001e78:	010aea93          	ori	s5,s5,16
 4001e7c:	020af793          	andi	a5,s5,32
 4001e80:	0a0784e3          	beqz	a5,4002728 <_vfprintf_r+0x13d8>
 4001e84:	01412783          	lw	a5,20(sp)
 4001e88:	00778b93          	addi	s7,a5,7
 4001e8c:	ff8bfb93          	andi	s7,s7,-8
 4001e90:	000bad83          	lw	s11,0(s7)
 4001e94:	004ba903          	lw	s2,4(s7)
 4001e98:	008b8793          	addi	a5,s7,8
 4001e9c:	00f12a23          	sw	a5,20(sp)
 4001ea0:	bffafb13          	andi	s6,s5,-1025
 4001ea4:	00000793          	li	a5,0
 4001ea8:	f79ff06f          	j	4001e20 <_vfprintf_r+0xad0>
 4001eac:	000d8893          	mv	a7,s11
 4001eb0:	010aeb13          	ori	s6,s5,16
 4001eb4:	020b7793          	andi	a5,s6,32
 4001eb8:	0e0788e3          	beqz	a5,40027a8 <_vfprintf_r+0x1458>
 4001ebc:	01412783          	lw	a5,20(sp)
 4001ec0:	00778b93          	addi	s7,a5,7
 4001ec4:	ff8bfb93          	andi	s7,s7,-8
 4001ec8:	008b8793          	addi	a5,s7,8
 4001ecc:	00f12a23          	sw	a5,20(sp)
 4001ed0:	000bad83          	lw	s11,0(s7)
 4001ed4:	004ba903          	lw	s2,4(s7)
 4001ed8:	00100793          	li	a5,1
 4001edc:	f45ff06f          	j	4001e20 <_vfprintf_r+0xad0>
 4001ee0:	00044483          	lbu	s1,0(s0)
 4001ee4:	080aea93          	ori	s5,s5,128
 4001ee8:	e08ff06f          	j	40014f0 <_vfprintf_r+0x1a0>
 4001eec:	00044483          	lbu	s1,0(s0)
 4001ef0:	008aea93          	ori	s5,s5,8
 4001ef4:	dfcff06f          	j	40014f0 <_vfprintf_r+0x1a0>
 4001ef8:	000d8893          	mv	a7,s11
 4001efc:	010aea93          	ori	s5,s5,16
 4001f00:	020af793          	andi	a5,s5,32
 4001f04:	040788e3          	beqz	a5,4002754 <_vfprintf_r+0x1404>
 4001f08:	01412783          	lw	a5,20(sp)
 4001f0c:	00778b93          	addi	s7,a5,7
 4001f10:	ff8bfb93          	andi	s7,s7,-8
 4001f14:	004ba783          	lw	a5,4(s7)
 4001f18:	000bad83          	lw	s11,0(s7)
 4001f1c:	008b8713          	addi	a4,s7,8
 4001f20:	00e12a23          	sw	a4,20(sp)
 4001f24:	00078913          	mv	s2,a5
 4001f28:	0407cee3          	bltz	a5,4002784 <_vfprintf_r+0x1434>
 4001f2c:	fff00793          	li	a5,-1
 4001f30:	000a8b13          	mv	s6,s5
 4001f34:	02fc8463          	beq	s9,a5,4001f5c <_vfprintf_r+0xc0c>
 4001f38:	012de7b3          	or	a5,s11,s2
 4001f3c:	f7fafb13          	andi	s6,s5,-129
 4001f40:	00079e63          	bnez	a5,4001f5c <_vfprintf_r+0xc0c>
 4001f44:	020c9263          	bnez	s9,4001f68 <_vfprintf_r+0xc18>
 4001f48:	000b0a93          	mv	s5,s6
 4001f4c:	00000c93          	li	s9,0
 4001f50:	00000913          	li	s2,0
 4001f54:	1c010b93          	addi	s7,sp,448
 4001f58:	ef5ff06f          	j	4001e4c <_vfprintf_r+0xafc>
 4001f5c:	360912e3          	bnez	s2,4002ac0 <_vfprintf_r+0x1770>
 4001f60:	00900793          	li	a5,9
 4001f64:	35b7eee3          	bltu	a5,s11,4002ac0 <_vfprintf_r+0x1770>
 4001f68:	030d8d93          	addi	s11,s11,48
 4001f6c:	1bb10fa3          	sb	s11,447(sp)
 4001f70:	000b0a93          	mv	s5,s6
 4001f74:	00100913          	li	s2,1
 4001f78:	1bf10b93          	addi	s7,sp,447
 4001f7c:	ed1ff06f          	j	4001e4c <_vfprintf_r+0xafc>
 4001f80:	01412783          	lw	a5,20(sp)
 4001f84:	00044483          	lbu	s1,0(s0)
 4001f88:	0007a983          	lw	s3,0(a5)
 4001f8c:	00478793          	addi	a5,a5,4
 4001f90:	00f12a23          	sw	a5,20(sp)
 4001f94:	d409de63          	bgez	s3,40014f0 <_vfprintf_r+0x1a0>
 4001f98:	413009b3          	neg	s3,s3
 4001f9c:	004aea93          	ori	s5,s5,4
 4001fa0:	d50ff06f          	j	40014f0 <_vfprintf_r+0x1a0>
 4001fa4:	00044483          	lbu	s1,0(s0)
 4001fa8:	001aea93          	ori	s5,s5,1
 4001fac:	d44ff06f          	j	40014f0 <_vfprintf_r+0x1a0>
 4001fb0:	0d714783          	lbu	a5,215(sp)
 4001fb4:	00044483          	lbu	s1,0(s0)
 4001fb8:	d2079c63          	bnez	a5,40014f0 <_vfprintf_r+0x1a0>
 4001fbc:	02000793          	li	a5,32
 4001fc0:	0cf10ba3          	sb	a5,215(sp)
 4001fc4:	d2cff06f          	j	40014f0 <_vfprintf_r+0x1a0>
 4001fc8:	00044483          	lbu	s1,0(s0)
 4001fcc:	004aea93          	ori	s5,s5,4
 4001fd0:	d20ff06f          	j	40014f0 <_vfprintf_r+0x1a0>
 4001fd4:	02b00793          	li	a5,43
 4001fd8:	00044483          	lbu	s1,0(s0)
 4001fdc:	0cf10ba3          	sb	a5,215(sp)
 4001fe0:	d10ff06f          	j	40014f0 <_vfprintf_r+0x1a0>
 4001fe4:	00044483          	lbu	s1,0(s0)
 4001fe8:	00140693          	addi	a3,s0,1
 4001fec:	01649463          	bne	s1,s6,4001ff4 <_vfprintf_r+0xca4>
 4001ff0:	5750106f          	j	4003d64 <_vfprintf_r+0x2a14>
 4001ff4:	fd048613          	addi	a2,s1,-48
 4001ff8:	00068413          	mv	s0,a3
 4001ffc:	00000c93          	li	s9,0
 4002000:	cec96c63          	bltu	s2,a2,40014f8 <_vfprintf_r+0x1a8>
 4002004:	00044483          	lbu	s1,0(s0)
 4002008:	002c9793          	slli	a5,s9,0x2
 400200c:	019787b3          	add	a5,a5,s9
 4002010:	00179793          	slli	a5,a5,0x1
 4002014:	00c78cb3          	add	s9,a5,a2
 4002018:	fd048613          	addi	a2,s1,-48
 400201c:	00140413          	addi	s0,s0,1
 4002020:	fec972e3          	bgeu	s2,a2,4002004 <_vfprintf_r+0xcb4>
 4002024:	cd4ff06f          	j	40014f8 <_vfprintf_r+0x1a8>
 4002028:	000a8b13          	mv	s6,s5
 400202c:	00100693          	li	a3,1
 4002030:	f2d786e3          	beq	a5,a3,4001f5c <_vfprintf_r+0xc0c>
 4002034:	00200693          	li	a3,2
 4002038:	06d78c63          	beq	a5,a3,40020b0 <_vfprintf_r+0xd60>
 400203c:	1c010b93          	addi	s7,sp,448
 4002040:	01d91713          	slli	a4,s2,0x1d
 4002044:	007df793          	andi	a5,s11,7
 4002048:	003ddd93          	srli	s11,s11,0x3
 400204c:	03078793          	addi	a5,a5,48
 4002050:	01b76db3          	or	s11,a4,s11
 4002054:	00395913          	srli	s2,s2,0x3
 4002058:	fefb8fa3          	sb	a5,-1(s7)
 400205c:	012de733          	or	a4,s11,s2
 4002060:	000b8613          	mv	a2,s7
 4002064:	fffb8b93          	addi	s7,s7,-1
 4002068:	fc071ce3          	bnez	a4,4002040 <_vfprintf_r+0xcf0>
 400206c:	001b7693          	andi	a3,s6,1
 4002070:	06068a63          	beqz	a3,40020e4 <_vfprintf_r+0xd94>
 4002074:	03000693          	li	a3,48
 4002078:	06d78663          	beq	a5,a3,40020e4 <_vfprintf_r+0xd94>
 400207c:	ffe60613          	addi	a2,a2,-2
 4002080:	1c010793          	addi	a5,sp,448
 4002084:	fedb8fa3          	sb	a3,-1(s7)
 4002088:	40c78933          	sub	s2,a5,a2
 400208c:	000b0a93          	mv	s5,s6
 4002090:	00060b93          	mv	s7,a2
 4002094:	db9ff06f          	j	4001e4c <_vfprintf_r+0xafc>
 4002098:	00100713          	li	a4,1
 400209c:	00e79463          	bne	a5,a4,40020a4 <_vfprintf_r+0xd54>
 40020a0:	22d0106f          	j	4003acc <_vfprintf_r+0x277c>
 40020a4:	00200713          	li	a4,2
 40020a8:	000a8b13          	mv	s6,s5
 40020ac:	f8e798e3          	bne	a5,a4,400203c <_vfprintf_r+0xcec>
 40020b0:	03012683          	lw	a3,48(sp)
 40020b4:	1c010b93          	addi	s7,sp,448
 40020b8:	00fdf793          	andi	a5,s11,15
 40020bc:	00f687b3          	add	a5,a3,a5
 40020c0:	0007c703          	lbu	a4,0(a5)
 40020c4:	004ddd93          	srli	s11,s11,0x4
 40020c8:	01c91793          	slli	a5,s2,0x1c
 40020cc:	01b7edb3          	or	s11,a5,s11
 40020d0:	00495913          	srli	s2,s2,0x4
 40020d4:	feeb8fa3          	sb	a4,-1(s7)
 40020d8:	012de7b3          	or	a5,s11,s2
 40020dc:	fffb8b93          	addi	s7,s7,-1
 40020e0:	fc079ce3          	bnez	a5,40020b8 <_vfprintf_r+0xd68>
 40020e4:	1c010793          	addi	a5,sp,448
 40020e8:	41778933          	sub	s2,a5,s7
 40020ec:	000b0a93          	mv	s5,s6
 40020f0:	d5dff06f          	j	4001e4c <_vfprintf_r+0xafc>
 40020f4:	06500713          	li	a4,101
 40020f8:	9e9754e3          	bge	a4,s1,4001ae0 <_vfprintf_r+0x790>
 40020fc:	10012703          	lw	a4,256(sp)
 4002100:	0b010593          	addi	a1,sp,176
 4002104:	0c010513          	addi	a0,sp,192
 4002108:	0ce12023          	sw	a4,192(sp)
 400210c:	10412703          	lw	a4,260(sp)
 4002110:	05112023          	sw	a7,64(sp)
 4002114:	02f12e23          	sw	a5,60(sp)
 4002118:	0ce12223          	sw	a4,196(sp)
 400211c:	10812703          	lw	a4,264(sp)
 4002120:	0a012823          	sw	zero,176(sp)
 4002124:	0a012a23          	sw	zero,180(sp)
 4002128:	0ce12423          	sw	a4,200(sp)
 400212c:	10c12703          	lw	a4,268(sp)
 4002130:	0a012c23          	sw	zero,184(sp)
 4002134:	0a012e23          	sw	zero,188(sp)
 4002138:	0ce12623          	sw	a4,204(sp)
 400213c:	00d0c0ef          	jal	ra,400e948 <__eqtf2>
 4002140:	03c12783          	lw	a5,60(sp)
 4002144:	04012883          	lw	a7,64(sp)
 4002148:	3c051863          	bnez	a0,4002518 <_vfprintf_r+0x11c8>
 400214c:	0f812703          	lw	a4,248(sp)
 4002150:	00010697          	auipc	a3,0x10
 4002154:	22068693          	addi	a3,a3,544 # 4012370 <__clz_tab+0x140>
 4002158:	00d8a023          	sw	a3,0(a7)
 400215c:	00178793          	addi	a5,a5,1
 4002160:	00100693          	li	a3,1
 4002164:	00170713          	addi	a4,a4,1
 4002168:	00d8a223          	sw	a3,4(a7)
 400216c:	0ef12e23          	sw	a5,252(sp)
 4002170:	0ee12c23          	sw	a4,248(sp)
 4002174:	00700693          	li	a3,7
 4002178:	00888893          	addi	a7,a7,8
 400217c:	2ae6cce3          	blt	a3,a4,4002c34 <_vfprintf_r+0x18e4>
 4002180:	0dc12703          	lw	a4,220(sp)
 4002184:	01c12683          	lw	a3,28(sp)
 4002188:	64d75863          	bge	a4,a3,40027d8 <_vfprintf_r+0x1488>
 400218c:	02c12703          	lw	a4,44(sp)
 4002190:	02812683          	lw	a3,40(sp)
 4002194:	00888893          	addi	a7,a7,8
 4002198:	fee8ac23          	sw	a4,-8(a7)
 400219c:	0f812703          	lw	a4,248(sp)
 40021a0:	00d787b3          	add	a5,a5,a3
 40021a4:	fed8ae23          	sw	a3,-4(a7)
 40021a8:	00170713          	addi	a4,a4,1
 40021ac:	0ef12e23          	sw	a5,252(sp)
 40021b0:	0ee12c23          	sw	a4,248(sp)
 40021b4:	00700693          	li	a3,7
 40021b8:	7ee6c663          	blt	a3,a4,40029a4 <_vfprintf_r+0x1654>
 40021bc:	01c12703          	lw	a4,28(sp)
 40021c0:	fff70493          	addi	s1,a4,-1
 40021c4:	c8905263          	blez	s1,4001648 <_vfprintf_r+0x2f8>
 40021c8:	0f812703          	lw	a4,248(sp)
 40021cc:	289a54e3          	bge	s4,s1,4002c54 <_vfprintf_r+0x1904>
 40021d0:	00700913          	li	s2,7
 40021d4:	00c0006f          	j	40021e0 <_vfprintf_r+0xe90>
 40021d8:	ff048493          	addi	s1,s1,-16
 40021dc:	269a5ce3          	bge	s4,s1,4002c54 <_vfprintf_r+0x1904>
 40021e0:	01078793          	addi	a5,a5,16
 40021e4:	00170713          	addi	a4,a4,1
 40021e8:	00010697          	auipc	a3,0x10
 40021ec:	33868693          	addi	a3,a3,824 # 4012520 <zeroes.0>
 40021f0:	00d8a023          	sw	a3,0(a7)
 40021f4:	0148a223          	sw	s4,4(a7)
 40021f8:	0ef12e23          	sw	a5,252(sp)
 40021fc:	0ee12c23          	sw	a4,248(sp)
 4002200:	00888893          	addi	a7,a7,8
 4002204:	fce95ae3          	bge	s2,a4,40021d8 <_vfprintf_r+0xe88>
 4002208:	0f410613          	addi	a2,sp,244
 400220c:	000c0593          	mv	a1,s8
 4002210:	000d0513          	mv	a0,s10
 4002214:	5c1080ef          	jal	ra,400afd4 <__sprint_r>
 4002218:	18051e63          	bnez	a0,40023b4 <_vfprintf_r+0x1064>
 400221c:	0fc12783          	lw	a5,252(sp)
 4002220:	0f812703          	lw	a4,248(sp)
 4002224:	11c10893          	addi	a7,sp,284
 4002228:	fb1ff06f          	j	40021d8 <_vfprintf_r+0xe88>
 400222c:	41698db3          	sub	s11,s3,s6
 4002230:	bfb05063          	blez	s11,4001610 <_vfprintf_r+0x2c0>
 4002234:	0f812703          	lw	a4,248(sp)
 4002238:	07ba5463          	bge	s4,s11,40022a0 <_vfprintf_r+0xf50>
 400223c:	00700e13          	li	t3,7
 4002240:	00c0006f          	j	400224c <_vfprintf_r+0xefc>
 4002244:	ff0d8d93          	addi	s11,s11,-16
 4002248:	05ba5c63          	bge	s4,s11,40022a0 <_vfprintf_r+0xf50>
 400224c:	01078793          	addi	a5,a5,16
 4002250:	00170713          	addi	a4,a4,1
 4002254:	00010697          	auipc	a3,0x10
 4002258:	2cc68693          	addi	a3,a3,716 # 4012520 <zeroes.0>
 400225c:	00d8a023          	sw	a3,0(a7)
 4002260:	0148a223          	sw	s4,4(a7)
 4002264:	0ef12e23          	sw	a5,252(sp)
 4002268:	0ee12c23          	sw	a4,248(sp)
 400226c:	00888893          	addi	a7,a7,8
 4002270:	fcee5ae3          	bge	t3,a4,4002244 <_vfprintf_r+0xef4>
 4002274:	0f410613          	addi	a2,sp,244
 4002278:	000c0593          	mv	a1,s8
 400227c:	000d0513          	mv	a0,s10
 4002280:	555080ef          	jal	ra,400afd4 <__sprint_r>
 4002284:	12051863          	bnez	a0,40023b4 <_vfprintf_r+0x1064>
 4002288:	ff0d8d93          	addi	s11,s11,-16
 400228c:	0fc12783          	lw	a5,252(sp)
 4002290:	0f812703          	lw	a4,248(sp)
 4002294:	11c10893          	addi	a7,sp,284
 4002298:	00700e13          	li	t3,7
 400229c:	fbba48e3          	blt	s4,s11,400224c <_vfprintf_r+0xefc>
 40022a0:	00010697          	auipc	a3,0x10
 40022a4:	28068693          	addi	a3,a3,640 # 4012520 <zeroes.0>
 40022a8:	01b787b3          	add	a5,a5,s11
 40022ac:	00170713          	addi	a4,a4,1
 40022b0:	00d8a023          	sw	a3,0(a7)
 40022b4:	01b8a223          	sw	s11,4(a7)
 40022b8:	0ef12e23          	sw	a5,252(sp)
 40022bc:	0ee12c23          	sw	a4,248(sp)
 40022c0:	00700693          	li	a3,7
 40022c4:	00888893          	addi	a7,a7,8
 40022c8:	b4e6d463          	bge	a3,a4,4001610 <_vfprintf_r+0x2c0>
 40022cc:	0f410613          	addi	a2,sp,244
 40022d0:	000c0593          	mv	a1,s8
 40022d4:	000d0513          	mv	a0,s10
 40022d8:	4fd080ef          	jal	ra,400afd4 <__sprint_r>
 40022dc:	0c051c63          	bnez	a0,40023b4 <_vfprintf_r+0x1064>
 40022e0:	0fc12783          	lw	a5,252(sp)
 40022e4:	11c10893          	addi	a7,sp,284
 40022e8:	b28ff06f          	j	4001610 <_vfprintf_r+0x2c0>
 40022ec:	0f812703          	lw	a4,248(sp)
 40022f0:	079a5263          	bge	s4,s9,4002354 <_vfprintf_r+0x1004>
 40022f4:	00700d93          	li	s11,7
 40022f8:	00c0006f          	j	4002304 <_vfprintf_r+0xfb4>
 40022fc:	ff0c8c93          	addi	s9,s9,-16
 4002300:	059a5a63          	bge	s4,s9,4002354 <_vfprintf_r+0x1004>
 4002304:	01078793          	addi	a5,a5,16
 4002308:	00170713          	addi	a4,a4,1
 400230c:	00010697          	auipc	a3,0x10
 4002310:	21468693          	addi	a3,a3,532 # 4012520 <zeroes.0>
 4002314:	00d8a023          	sw	a3,0(a7)
 4002318:	0148a223          	sw	s4,4(a7)
 400231c:	0ef12e23          	sw	a5,252(sp)
 4002320:	0ee12c23          	sw	a4,248(sp)
 4002324:	00888893          	addi	a7,a7,8
 4002328:	fceddae3          	bge	s11,a4,40022fc <_vfprintf_r+0xfac>
 400232c:	0f410613          	addi	a2,sp,244
 4002330:	000c0593          	mv	a1,s8
 4002334:	000d0513          	mv	a0,s10
 4002338:	49d080ef          	jal	ra,400afd4 <__sprint_r>
 400233c:	06051c63          	bnez	a0,40023b4 <_vfprintf_r+0x1064>
 4002340:	ff0c8c93          	addi	s9,s9,-16
 4002344:	0fc12783          	lw	a5,252(sp)
 4002348:	0f812703          	lw	a4,248(sp)
 400234c:	11c10893          	addi	a7,sp,284
 4002350:	fb9a4ae3          	blt	s4,s9,4002304 <_vfprintf_r+0xfb4>
 4002354:	00010697          	auipc	a3,0x10
 4002358:	1cc68693          	addi	a3,a3,460 # 4012520 <zeroes.0>
 400235c:	019787b3          	add	a5,a5,s9
 4002360:	00170713          	addi	a4,a4,1
 4002364:	00d8a023          	sw	a3,0(a7)
 4002368:	0198a223          	sw	s9,4(a7)
 400236c:	0ef12e23          	sw	a5,252(sp)
 4002370:	0ee12c23          	sw	a4,248(sp)
 4002374:	00700693          	li	a3,7
 4002378:	00888893          	addi	a7,a7,8
 400237c:	a8e6de63          	bge	a3,a4,4001618 <_vfprintf_r+0x2c8>
 4002380:	0f410613          	addi	a2,sp,244
 4002384:	000c0593          	mv	a1,s8
 4002388:	000d0513          	mv	a0,s10
 400238c:	449080ef          	jal	ra,400afd4 <__sprint_r>
 4002390:	02051263          	bnez	a0,40023b4 <_vfprintf_r+0x1064>
 4002394:	0fc12783          	lw	a5,252(sp)
 4002398:	11c10893          	addi	a7,sp,284
 400239c:	a7cff06f          	j	4001618 <_vfprintf_r+0x2c8>
 40023a0:	0f410613          	addi	a2,sp,244
 40023a4:	000c0593          	mv	a1,s8
 40023a8:	000d0513          	mv	a0,s10
 40023ac:	429080ef          	jal	ra,400afd4 <__sprint_r>
 40023b0:	ac050063          	beqz	a0,4001670 <_vfprintf_r+0x320>
 40023b4:	01012583          	lw	a1,16(sp)
 40023b8:	ae058663          	beqz	a1,40016a4 <_vfprintf_r+0x354>
 40023bc:	000d0513          	mv	a0,s10
 40023c0:	1d0020ef          	jal	ra,4004590 <_free_r>
 40023c4:	ae0ff06f          	j	40016a4 <_vfprintf_r+0x354>
 40023c8:	0f812703          	lw	a4,248(sp)
 40023cc:	00010d97          	auipc	s11,0x10
 40023d0:	144d8d93          	addi	s11,s11,324 # 4012510 <blanks.1>
 40023d4:	0cda5463          	bge	s4,a3,400249c <_vfprintf_r+0x114c>
 40023d8:	04812623          	sw	s0,76(sp)
 40023dc:	000d0413          	mv	s0,s10
 40023e0:	00068d13          	mv	s10,a3
 40023e4:	000d8693          	mv	a3,s11
 40023e8:	00700f93          	li	t6,7
 40023ec:	000b0d93          	mv	s11,s6
 40023f0:	03e12e23          	sw	t5,60(sp)
 40023f4:	00098b13          	mv	s6,s3
 40023f8:	05d12023          	sw	t4,64(sp)
 40023fc:	00048993          	mv	s3,s1
 4002400:	000c0493          	mv	s1,s8
 4002404:	000b8c13          	mv	s8,s7
 4002408:	00090b93          	mv	s7,s2
 400240c:	00068913          	mv	s2,a3
 4002410:	00c0006f          	j	400241c <_vfprintf_r+0x10cc>
 4002414:	ff0d0d13          	addi	s10,s10,-16
 4002418:	05aa5863          	bge	s4,s10,4002468 <_vfprintf_r+0x1118>
 400241c:	01078793          	addi	a5,a5,16
 4002420:	00170713          	addi	a4,a4,1
 4002424:	0128a023          	sw	s2,0(a7)
 4002428:	0148a223          	sw	s4,4(a7)
 400242c:	0ef12e23          	sw	a5,252(sp)
 4002430:	0ee12c23          	sw	a4,248(sp)
 4002434:	00888893          	addi	a7,a7,8
 4002438:	fcefdee3          	bge	t6,a4,4002414 <_vfprintf_r+0x10c4>
 400243c:	0f410613          	addi	a2,sp,244
 4002440:	00048593          	mv	a1,s1
 4002444:	00040513          	mv	a0,s0
 4002448:	38d080ef          	jal	ra,400afd4 <__sprint_r>
 400244c:	7c051063          	bnez	a0,4002c0c <_vfprintf_r+0x18bc>
 4002450:	ff0d0d13          	addi	s10,s10,-16
 4002454:	0fc12783          	lw	a5,252(sp)
 4002458:	0f812703          	lw	a4,248(sp)
 400245c:	11c10893          	addi	a7,sp,284
 4002460:	00700f93          	li	t6,7
 4002464:	fbaa4ce3          	blt	s4,s10,400241c <_vfprintf_r+0x10cc>
 4002468:	000d0693          	mv	a3,s10
 400246c:	03c12f03          	lw	t5,60(sp)
 4002470:	00040d13          	mv	s10,s0
 4002474:	04012e83          	lw	t4,64(sp)
 4002478:	04c12403          	lw	s0,76(sp)
 400247c:	00090613          	mv	a2,s2
 4002480:	000b8913          	mv	s2,s7
 4002484:	000c0b93          	mv	s7,s8
 4002488:	00048c13          	mv	s8,s1
 400248c:	00098493          	mv	s1,s3
 4002490:	000b0993          	mv	s3,s6
 4002494:	000d8b13          	mv	s6,s11
 4002498:	00060d93          	mv	s11,a2
 400249c:	00d787b3          	add	a5,a5,a3
 40024a0:	00170713          	addi	a4,a4,1
 40024a4:	00d8a223          	sw	a3,4(a7)
 40024a8:	01b8a023          	sw	s11,0(a7)
 40024ac:	0ef12e23          	sw	a5,252(sp)
 40024b0:	0ee12c23          	sw	a4,248(sp)
 40024b4:	00700693          	li	a3,7
 40024b8:	00888893          	addi	a7,a7,8
 40024bc:	8ee6d063          	bge	a3,a4,400159c <_vfprintf_r+0x24c>
 40024c0:	0f410613          	addi	a2,sp,244
 40024c4:	000c0593          	mv	a1,s8
 40024c8:	000d0513          	mv	a0,s10
 40024cc:	05d12023          	sw	t4,64(sp)
 40024d0:	03e12e23          	sw	t5,60(sp)
 40024d4:	301080ef          	jal	ra,400afd4 <__sprint_r>
 40024d8:	ec051ee3          	bnez	a0,40023b4 <_vfprintf_r+0x1064>
 40024dc:	0fc12783          	lw	a5,252(sp)
 40024e0:	04012e83          	lw	t4,64(sp)
 40024e4:	03c12f03          	lw	t5,60(sp)
 40024e8:	11c10893          	addi	a7,sp,284
 40024ec:	8b0ff06f          	j	400159c <_vfprintf_r+0x24c>
 40024f0:	0f410613          	addi	a2,sp,244
 40024f4:	000c0593          	mv	a1,s8
 40024f8:	000d0513          	mv	a0,s10
 40024fc:	03d12e23          	sw	t4,60(sp)
 4002500:	2d5080ef          	jal	ra,400afd4 <__sprint_r>
 4002504:	ea0518e3          	bnez	a0,40023b4 <_vfprintf_r+0x1064>
 4002508:	0fc12783          	lw	a5,252(sp)
 400250c:	03c12e83          	lw	t4,60(sp)
 4002510:	11c10893          	addi	a7,sp,284
 4002514:	8f4ff06f          	j	4001608 <_vfprintf_r+0x2b8>
 4002518:	0dc12683          	lw	a3,220(sp)
 400251c:	66d05863          	blez	a3,4002b8c <_vfprintf_r+0x183c>
 4002520:	01812703          	lw	a4,24(sp)
 4002524:	01c12683          	lw	a3,28(sp)
 4002528:	00070493          	mv	s1,a4
 400252c:	36e6ce63          	blt	a3,a4,40028a8 <_vfprintf_r+0x1558>
 4002530:	02905663          	blez	s1,400255c <_vfprintf_r+0x120c>
 4002534:	0f812703          	lw	a4,248(sp)
 4002538:	009787b3          	add	a5,a5,s1
 400253c:	0178a023          	sw	s7,0(a7)
 4002540:	00170713          	addi	a4,a4,1
 4002544:	0098a223          	sw	s1,4(a7)
 4002548:	0ef12e23          	sw	a5,252(sp)
 400254c:	0ee12c23          	sw	a4,248(sp)
 4002550:	00700693          	li	a3,7
 4002554:	00888893          	addi	a7,a7,8
 4002558:	38e6c6e3          	blt	a3,a4,40030e4 <_vfprintf_r+0x1d94>
 400255c:	fff4c713          	not	a4,s1
 4002560:	41f75713          	srai	a4,a4,0x1f
 4002564:	00e4f4b3          	and	s1,s1,a4
 4002568:	01812703          	lw	a4,24(sp)
 400256c:	409704b3          	sub	s1,a4,s1
 4002570:	48904263          	bgtz	s1,40029f4 <_vfprintf_r+0x16a4>
 4002574:	01812683          	lw	a3,24(sp)
 4002578:	400af713          	andi	a4,s5,1024
 400257c:	00db84b3          	add	s1,s7,a3
 4002580:	120714e3          	bnez	a4,4002ea8 <_vfprintf_r+0x1b58>
 4002584:	0dc12683          	lw	a3,220(sp)
 4002588:	01c12703          	lw	a4,28(sp)
 400258c:	00e6c663          	blt	a3,a4,4002598 <_vfprintf_r+0x1248>
 4002590:	001af713          	andi	a4,s5,1
 4002594:	36070ce3          	beqz	a4,400310c <_vfprintf_r+0x1dbc>
 4002598:	02c12703          	lw	a4,44(sp)
 400259c:	02812603          	lw	a2,40(sp)
 40025a0:	00888893          	addi	a7,a7,8
 40025a4:	fee8ac23          	sw	a4,-8(a7)
 40025a8:	0f812703          	lw	a4,248(sp)
 40025ac:	00c787b3          	add	a5,a5,a2
 40025b0:	fec8ae23          	sw	a2,-4(a7)
 40025b4:	00170713          	addi	a4,a4,1
 40025b8:	0ef12e23          	sw	a5,252(sp)
 40025bc:	0ee12c23          	sw	a4,248(sp)
 40025c0:	00700613          	li	a2,7
 40025c4:	00e65463          	bge	a2,a4,40025cc <_vfprintf_r+0x127c>
 40025c8:	2780106f          	j	4003840 <_vfprintf_r+0x24f0>
 40025cc:	01c12603          	lw	a2,28(sp)
 40025d0:	00cb8733          	add	a4,s7,a2
 40025d4:	40970733          	sub	a4,a4,s1
 40025d8:	40d60633          	sub	a2,a2,a3
 40025dc:	00060913          	mv	s2,a2
 40025e0:	00c75463          	bge	a4,a2,40025e8 <_vfprintf_r+0x1298>
 40025e4:	00070913          	mv	s2,a4
 40025e8:	03205863          	blez	s2,4002618 <_vfprintf_r+0x12c8>
 40025ec:	0f812703          	lw	a4,248(sp)
 40025f0:	012787b3          	add	a5,a5,s2
 40025f4:	0098a023          	sw	s1,0(a7)
 40025f8:	00170713          	addi	a4,a4,1
 40025fc:	0128a223          	sw	s2,4(a7)
 4002600:	0ef12e23          	sw	a5,252(sp)
 4002604:	0ee12c23          	sw	a4,248(sp)
 4002608:	00700693          	li	a3,7
 400260c:	00888893          	addi	a7,a7,8
 4002610:	00e6d463          	bge	a3,a4,4002618 <_vfprintf_r+0x12c8>
 4002614:	28c0106f          	j	40038a0 <_vfprintf_r+0x2550>
 4002618:	fff94713          	not	a4,s2
 400261c:	41f75713          	srai	a4,a4,0x1f
 4002620:	00e97733          	and	a4,s2,a4
 4002624:	40e604b3          	sub	s1,a2,a4
 4002628:	00904463          	bgtz	s1,4002630 <_vfprintf_r+0x12e0>
 400262c:	81cff06f          	j	4001648 <_vfprintf_r+0x2f8>
 4002630:	0f812703          	lw	a4,248(sp)
 4002634:	629a5063          	bge	s4,s1,4002c54 <_vfprintf_r+0x1904>
 4002638:	00700913          	li	s2,7
 400263c:	00c0006f          	j	4002648 <_vfprintf_r+0x12f8>
 4002640:	ff048493          	addi	s1,s1,-16
 4002644:	609a5863          	bge	s4,s1,4002c54 <_vfprintf_r+0x1904>
 4002648:	01078793          	addi	a5,a5,16
 400264c:	00170713          	addi	a4,a4,1
 4002650:	00010697          	auipc	a3,0x10
 4002654:	ed068693          	addi	a3,a3,-304 # 4012520 <zeroes.0>
 4002658:	00d8a023          	sw	a3,0(a7)
 400265c:	0148a223          	sw	s4,4(a7)
 4002660:	0ef12e23          	sw	a5,252(sp)
 4002664:	0ee12c23          	sw	a4,248(sp)
 4002668:	00888893          	addi	a7,a7,8
 400266c:	fce95ae3          	bge	s2,a4,4002640 <_vfprintf_r+0x12f0>
 4002670:	0f410613          	addi	a2,sp,244
 4002674:	000c0593          	mv	a1,s8
 4002678:	000d0513          	mv	a0,s10
 400267c:	159080ef          	jal	ra,400afd4 <__sprint_r>
 4002680:	d2051ae3          	bnez	a0,40023b4 <_vfprintf_r+0x1064>
 4002684:	0fc12783          	lw	a5,252(sp)
 4002688:	0f812703          	lw	a4,248(sp)
 400268c:	11c10893          	addi	a7,sp,284
 4002690:	fb1ff06f          	j	4002640 <_vfprintf_r+0x12f0>
 4002694:	001af793          	andi	a5,s5,1
 4002698:	c6079463          	bnez	a5,4001b00 <_vfprintf_r+0x7b0>
 400269c:	00d8a223          	sw	a3,4(a7)
 40026a0:	0f912e23          	sw	s9,252(sp)
 40026a4:	0e912c23          	sw	s1,248(sp)
 40026a8:	00700793          	li	a5,7
 40026ac:	2297ca63          	blt	a5,s1,40028e0 <_vfprintf_r+0x1590>
 40026b0:	00270713          	addi	a4,a4,2
 40026b4:	01088893          	addi	a7,a7,16
 40026b8:	d18ff06f          	j	4001bd0 <_vfprintf_r+0x880>
 40026bc:	d1b05a63          	blez	s11,4001bd0 <_vfprintf_r+0x880>
 40026c0:	01ba4463          	blt	s4,s11,40026c8 <_vfprintf_r+0x1378>
 40026c4:	6980106f          	j	4003d5c <_vfprintf_r+0x2a0c>
 40026c8:	00700b93          	li	s7,7
 40026cc:	00068493          	mv	s1,a3
 40026d0:	0100006f          	j	40026e0 <_vfprintf_r+0x1390>
 40026d4:	ff0d8d93          	addi	s11,s11,-16
 40026d8:	1dba5e63          	bge	s4,s11,40028b4 <_vfprintf_r+0x1564>
 40026dc:	00148493          	addi	s1,s1,1
 40026e0:	010c8c93          	addi	s9,s9,16
 40026e4:	00010797          	auipc	a5,0x10
 40026e8:	e3c78793          	addi	a5,a5,-452 # 4012520 <zeroes.0>
 40026ec:	00f92023          	sw	a5,0(s2)
 40026f0:	01492223          	sw	s4,4(s2)
 40026f4:	0f912e23          	sw	s9,252(sp)
 40026f8:	0e912c23          	sw	s1,248(sp)
 40026fc:	00890913          	addi	s2,s2,8
 4002700:	fc9bdae3          	bge	s7,s1,40026d4 <_vfprintf_r+0x1384>
 4002704:	0f410613          	addi	a2,sp,244
 4002708:	000c0593          	mv	a1,s8
 400270c:	000d0513          	mv	a0,s10
 4002710:	0c5080ef          	jal	ra,400afd4 <__sprint_r>
 4002714:	ca0510e3          	bnez	a0,40023b4 <_vfprintf_r+0x1064>
 4002718:	0fc12c83          	lw	s9,252(sp)
 400271c:	0f812483          	lw	s1,248(sp)
 4002720:	11c10913          	addi	s2,sp,284
 4002724:	fb1ff06f          	j	40026d4 <_vfprintf_r+0x1384>
 4002728:	01412683          	lw	a3,20(sp)
 400272c:	010af793          	andi	a5,s5,16
 4002730:	00468713          	addi	a4,a3,4
 4002734:	16079263          	bnez	a5,4002898 <_vfprintf_r+0x1548>
 4002738:	040af793          	andi	a5,s5,64
 400273c:	68078063          	beqz	a5,4002dbc <_vfprintf_r+0x1a6c>
 4002740:	01412783          	lw	a5,20(sp)
 4002744:	00000913          	li	s2,0
 4002748:	00e12a23          	sw	a4,20(sp)
 400274c:	0007dd83          	lhu	s11,0(a5)
 4002750:	f50ff06f          	j	4001ea0 <_vfprintf_r+0xb50>
 4002754:	01412683          	lw	a3,20(sp)
 4002758:	010af793          	andi	a5,s5,16
 400275c:	00468713          	addi	a4,a3,4
 4002760:	12079263          	bnez	a5,4002884 <_vfprintf_r+0x1534>
 4002764:	040af793          	andi	a5,s5,64
 4002768:	6a078663          	beqz	a5,4002e14 <_vfprintf_r+0x1ac4>
 400276c:	01412783          	lw	a5,20(sp)
 4002770:	00e12a23          	sw	a4,20(sp)
 4002774:	00079d83          	lh	s11,0(a5)
 4002778:	41fdd913          	srai	s2,s11,0x1f
 400277c:	00090793          	mv	a5,s2
 4002780:	fa07d663          	bgez	a5,4001f2c <_vfprintf_r+0xbdc>
 4002784:	01b037b3          	snez	a5,s11
 4002788:	41200933          	neg	s2,s2
 400278c:	40f90933          	sub	s2,s2,a5
 4002790:	02d00793          	li	a5,45
 4002794:	0cf10ba3          	sb	a5,215(sp)
 4002798:	41b00db3          	neg	s11,s11
 400279c:	000a8b13          	mv	s6,s5
 40027a0:	00100793          	li	a5,1
 40027a4:	e80ff06f          	j	4001e24 <_vfprintf_r+0xad4>
 40027a8:	01412703          	lw	a4,20(sp)
 40027ac:	010b7793          	andi	a5,s6,16
 40027b0:	00470693          	addi	a3,a4,4
 40027b4:	0a079e63          	bnez	a5,4002870 <_vfprintf_r+0x1520>
 40027b8:	040b7793          	andi	a5,s6,64
 40027bc:	62078c63          	beqz	a5,4002df4 <_vfprintf_r+0x1aa4>
 40027c0:	01412783          	lw	a5,20(sp)
 40027c4:	00000913          	li	s2,0
 40027c8:	00d12a23          	sw	a3,20(sp)
 40027cc:	0007dd83          	lhu	s11,0(a5)
 40027d0:	00100793          	li	a5,1
 40027d4:	e4cff06f          	j	4001e20 <_vfprintf_r+0xad0>
 40027d8:	001af713          	andi	a4,s5,1
 40027dc:	00071463          	bnez	a4,40027e4 <_vfprintf_r+0x1494>
 40027e0:	e69fe06f          	j	4001648 <_vfprintf_r+0x2f8>
 40027e4:	9a9ff06f          	j	400218c <_vfprintf_r+0xe3c>
 40027e8:	000d8893          	mv	a7,s11
 40027ec:	f14ff06f          	j	4001f00 <_vfprintf_r+0xbb0>
 40027f0:	03000793          	li	a5,48
 40027f4:	1af10fa3          	sb	a5,447(sp)
 40027f8:	1bf10b93          	addi	s7,sp,447
 40027fc:	e50ff06f          	j	4001e4c <_vfprintf_r+0xafc>
 4002800:	03812783          	lw	a5,56(sp)
 4002804:	00044483          	lbu	s1,0(s0)
 4002808:	00079463          	bnez	a5,4002810 <_vfprintf_r+0x14c0>
 400280c:	ce5fe06f          	j	40014f0 <_vfprintf_r+0x1a0>
 4002810:	0007c783          	lbu	a5,0(a5)
 4002814:	00079463          	bnez	a5,400281c <_vfprintf_r+0x14cc>
 4002818:	cd9fe06f          	j	40014f0 <_vfprintf_r+0x1a0>
 400281c:	400aea93          	ori	s5,s5,1024
 4002820:	cd1fe06f          	j	40014f0 <_vfprintf_r+0x1a0>
 4002824:	00c12683          	lw	a3,12(sp)
 4002828:	00040b93          	mv	s7,s0
 400282c:	41f6d793          	srai	a5,a3,0x1f
 4002830:	00d72023          	sw	a3,0(a4)
 4002834:	00f72223          	sw	a5,4(a4)
 4002838:	e59fe06f          	j	4001690 <_vfprintf_r+0x340>
 400283c:	01412703          	lw	a4,20(sp)
 4002840:	00072783          	lw	a5,0(a4)
 4002844:	00470713          	addi	a4,a4,4
 4002848:	00e12a23          	sw	a4,20(sp)
 400284c:	0007a603          	lw	a2,0(a5)
 4002850:	0047a683          	lw	a3,4(a5)
 4002854:	0087a703          	lw	a4,8(a5)
 4002858:	00c7a783          	lw	a5,12(a5)
 400285c:	10c12023          	sw	a2,256(sp)
 4002860:	10d12223          	sw	a3,260(sp)
 4002864:	10e12423          	sw	a4,264(sp)
 4002868:	10f12623          	sw	a5,268(sp)
 400286c:	fa9fe06f          	j	4001814 <_vfprintf_r+0x4c4>
 4002870:	00072d83          	lw	s11,0(a4)
 4002874:	00000913          	li	s2,0
 4002878:	00d12a23          	sw	a3,20(sp)
 400287c:	00100793          	li	a5,1
 4002880:	da0ff06f          	j	4001e20 <_vfprintf_r+0xad0>
 4002884:	0006ad83          	lw	s11,0(a3)
 4002888:	00e12a23          	sw	a4,20(sp)
 400288c:	41fdd913          	srai	s2,s11,0x1f
 4002890:	00090793          	mv	a5,s2
 4002894:	e94ff06f          	j	4001f28 <_vfprintf_r+0xbd8>
 4002898:	0006ad83          	lw	s11,0(a3)
 400289c:	00000913          	li	s2,0
 40028a0:	00e12a23          	sw	a4,20(sp)
 40028a4:	dfcff06f          	j	4001ea0 <_vfprintf_r+0xb50>
 40028a8:	00068493          	mv	s1,a3
 40028ac:	c89044e3          	bgtz	s1,4002534 <_vfprintf_r+0x11e4>
 40028b0:	cadff06f          	j	400255c <_vfprintf_r+0x120c>
 40028b4:	00148713          	addi	a4,s1,1
 40028b8:	00890693          	addi	a3,s2,8
 40028bc:	00010797          	auipc	a5,0x10
 40028c0:	c6478793          	addi	a5,a5,-924 # 4012520 <zeroes.0>
 40028c4:	01bc8cb3          	add	s9,s9,s11
 40028c8:	00f92023          	sw	a5,0(s2)
 40028cc:	01b92223          	sw	s11,4(s2)
 40028d0:	0f912e23          	sw	s9,252(sp)
 40028d4:	0ee12c23          	sw	a4,248(sp)
 40028d8:	00700793          	li	a5,7
 40028dc:	7ce7d463          	bge	a5,a4,40030a4 <_vfprintf_r+0x1d54>
 40028e0:	0f410613          	addi	a2,sp,244
 40028e4:	000c0593          	mv	a1,s8
 40028e8:	000d0513          	mv	a0,s10
 40028ec:	6e8080ef          	jal	ra,400afd4 <__sprint_r>
 40028f0:	ac0512e3          	bnez	a0,40023b4 <_vfprintf_r+0x1064>
 40028f4:	0f812703          	lw	a4,248(sp)
 40028f8:	0fc12c83          	lw	s9,252(sp)
 40028fc:	12410893          	addi	a7,sp,292
 4002900:	00170713          	addi	a4,a4,1
 4002904:	11c10913          	addi	s2,sp,284
 4002908:	ac8ff06f          	j	4001bd0 <_vfprintf_r+0x880>
 400290c:	000d8893          	mv	a7,s11
 4002910:	000a8b13          	mv	s6,s5
 4002914:	da0ff06f          	j	4001eb4 <_vfprintf_r+0xb64>
 4002918:	00010797          	auipc	a5,0x10
 400291c:	a2878793          	addi	a5,a5,-1496 # 4012340 <__clz_tab+0x110>
 4002920:	000d8893          	mv	a7,s11
 4002924:	02f12823          	sw	a5,48(sp)
 4002928:	020af793          	andi	a5,s5,32
 400292c:	12078663          	beqz	a5,4002a58 <_vfprintf_r+0x1708>
 4002930:	01412783          	lw	a5,20(sp)
 4002934:	00778b93          	addi	s7,a5,7
 4002938:	ff8bfb93          	andi	s7,s7,-8
 400293c:	000bad83          	lw	s11,0(s7)
 4002940:	004ba903          	lw	s2,4(s7)
 4002944:	008b8793          	addi	a5,s7,8
 4002948:	00f12a23          	sw	a5,20(sp)
 400294c:	001af793          	andi	a5,s5,1
 4002950:	00078e63          	beqz	a5,400296c <_vfprintf_r+0x161c>
 4002954:	012de7b3          	or	a5,s11,s2
 4002958:	00078a63          	beqz	a5,400296c <_vfprintf_r+0x161c>
 400295c:	03000793          	li	a5,48
 4002960:	0cf10c23          	sb	a5,216(sp)
 4002964:	0c910ca3          	sb	s1,217(sp)
 4002968:	002aea93          	ori	s5,s5,2
 400296c:	bffafb13          	andi	s6,s5,-1025
 4002970:	00200793          	li	a5,2
 4002974:	cacff06f          	j	4001e20 <_vfprintf_r+0xad0>
 4002978:	00144483          	lbu	s1,1(s0)
 400297c:	200aea93          	ori	s5,s5,512
 4002980:	00140413          	addi	s0,s0,1
 4002984:	b6dfe06f          	j	40014f0 <_vfprintf_r+0x1a0>
 4002988:	00010797          	auipc	a5,0x10
 400298c:	9cc78793          	addi	a5,a5,-1588 # 4012354 <__clz_tab+0x124>
 4002990:	000d8893          	mv	a7,s11
 4002994:	02f12823          	sw	a5,48(sp)
 4002998:	f91ff06f          	j	4002928 <_vfprintf_r+0x15d8>
 400299c:	000d8893          	mv	a7,s11
 40029a0:	cdcff06f          	j	4001e7c <_vfprintf_r+0xb2c>
 40029a4:	0f410613          	addi	a2,sp,244
 40029a8:	000c0593          	mv	a1,s8
 40029ac:	000d0513          	mv	a0,s10
 40029b0:	624080ef          	jal	ra,400afd4 <__sprint_r>
 40029b4:	a00510e3          	bnez	a0,40023b4 <_vfprintf_r+0x1064>
 40029b8:	0fc12783          	lw	a5,252(sp)
 40029bc:	11c10893          	addi	a7,sp,284
 40029c0:	ffcff06f          	j	40021bc <_vfprintf_r+0xe6c>
 40029c4:	00144483          	lbu	s1,1(s0)
 40029c8:	020aea93          	ori	s5,s5,32
 40029cc:	00140413          	addi	s0,s0,1
 40029d0:	b21fe06f          	j	40014f0 <_vfprintf_r+0x1a0>
 40029d4:	00600793          	li	a5,6
 40029d8:	000c8913          	mv	s2,s9
 40029dc:	7397e463          	bltu	a5,s9,4003104 <_vfprintf_r+0x1db4>
 40029e0:	00090b13          	mv	s6,s2
 40029e4:	01b12a23          	sw	s11,20(sp)
 40029e8:	00010b97          	auipc	s7,0x10
 40029ec:	980b8b93          	addi	s7,s7,-1664 # 4012368 <__clz_tab+0x138>
 40029f0:	b79fe06f          	j	4001568 <_vfprintf_r+0x218>
 40029f4:	0f812703          	lw	a4,248(sp)
 40029f8:	469a5263          	bge	s4,s1,4002e5c <_vfprintf_r+0x1b0c>
 40029fc:	00700c93          	li	s9,7
 4002a00:	00c0006f          	j	4002a0c <_vfprintf_r+0x16bc>
 4002a04:	ff048493          	addi	s1,s1,-16
 4002a08:	449a5a63          	bge	s4,s1,4002e5c <_vfprintf_r+0x1b0c>
 4002a0c:	01078793          	addi	a5,a5,16
 4002a10:	00170713          	addi	a4,a4,1
 4002a14:	00010697          	auipc	a3,0x10
 4002a18:	b0c68693          	addi	a3,a3,-1268 # 4012520 <zeroes.0>
 4002a1c:	00d8a023          	sw	a3,0(a7)
 4002a20:	0148a223          	sw	s4,4(a7)
 4002a24:	0ef12e23          	sw	a5,252(sp)
 4002a28:	0ee12c23          	sw	a4,248(sp)
 4002a2c:	00888893          	addi	a7,a7,8
 4002a30:	fcecdae3          	bge	s9,a4,4002a04 <_vfprintf_r+0x16b4>
 4002a34:	0f410613          	addi	a2,sp,244
 4002a38:	000c0593          	mv	a1,s8
 4002a3c:	000d0513          	mv	a0,s10
 4002a40:	594080ef          	jal	ra,400afd4 <__sprint_r>
 4002a44:	960518e3          	bnez	a0,40023b4 <_vfprintf_r+0x1064>
 4002a48:	0fc12783          	lw	a5,252(sp)
 4002a4c:	0f812703          	lw	a4,248(sp)
 4002a50:	11c10893          	addi	a7,sp,284
 4002a54:	fb1ff06f          	j	4002a04 <_vfprintf_r+0x16b4>
 4002a58:	01412683          	lw	a3,20(sp)
 4002a5c:	010af793          	andi	a5,s5,16
 4002a60:	00468713          	addi	a4,a3,4
 4002a64:	1a078a63          	beqz	a5,4002c18 <_vfprintf_r+0x18c8>
 4002a68:	0006ad83          	lw	s11,0(a3)
 4002a6c:	00000913          	li	s2,0
 4002a70:	00e12a23          	sw	a4,20(sp)
 4002a74:	ed9ff06f          	j	400294c <_vfprintf_r+0x15fc>
 4002a78:	0f410613          	addi	a2,sp,244
 4002a7c:	000c0593          	mv	a1,s8
 4002a80:	000d0513          	mv	a0,s10
 4002a84:	550080ef          	jal	ra,400afd4 <__sprint_r>
 4002a88:	920516e3          	bnez	a0,40023b4 <_vfprintf_r+0x1064>
 4002a8c:	0fc12c83          	lw	s9,252(sp)
 4002a90:	0f812483          	lw	s1,248(sp)
 4002a94:	11c10913          	addi	s2,sp,284
 4002a98:	880ff06f          	j	4001b18 <_vfprintf_r+0x7c8>
 4002a9c:	0f410613          	addi	a2,sp,244
 4002aa0:	000c0593          	mv	a1,s8
 4002aa4:	000d0513          	mv	a0,s10
 4002aa8:	52c080ef          	jal	ra,400afd4 <__sprint_r>
 4002aac:	900514e3          	bnez	a0,40023b4 <_vfprintf_r+0x1064>
 4002ab0:	0fc12c83          	lw	s9,252(sp)
 4002ab4:	0f812483          	lw	s1,248(sp)
 4002ab8:	11c10913          	addi	s2,sp,284
 4002abc:	888ff06f          	j	4001b44 <_vfprintf_r+0x7f4>
 4002ac0:	1c010b93          	addi	s7,sp,448
 4002ac4:	00000793          	li	a5,0
 4002ac8:	00812823          	sw	s0,16(sp)
 4002acc:	00912c23          	sw	s1,24(sp)
 4002ad0:	000b8413          	mv	s0,s7
 4002ad4:	03312023          	sw	s3,32(sp)
 4002ad8:	000c0b93          	mv	s7,s8
 4002adc:	000d8493          	mv	s1,s11
 4002ae0:	00090993          	mv	s3,s2
 4002ae4:	03812d83          	lw	s11,56(sp)
 4002ae8:	400b7a93          	andi	s5,s6,1024
 4002aec:	00088c13          	mv	s8,a7
 4002af0:	00078913          	mv	s2,a5
 4002af4:	0240006f          	j	4002b18 <_vfprintf_r+0x17c8>
 4002af8:	00a00613          	li	a2,10
 4002afc:	00000693          	li	a3,0
 4002b00:	00048513          	mv	a0,s1
 4002b04:	00098593          	mv	a1,s3
 4002b08:	7110a0ef          	jal	ra,400da18 <__udivdi3>
 4002b0c:	58098663          	beqz	s3,4003098 <_vfprintf_r+0x1d48>
 4002b10:	00050493          	mv	s1,a0
 4002b14:	00058993          	mv	s3,a1
 4002b18:	00a00613          	li	a2,10
 4002b1c:	00000693          	li	a3,0
 4002b20:	00048513          	mv	a0,s1
 4002b24:	00098593          	mv	a1,s3
 4002b28:	3900b0ef          	jal	ra,400deb8 <__umoddi3>
 4002b2c:	03050513          	addi	a0,a0,48
 4002b30:	fea40fa3          	sb	a0,-1(s0)
 4002b34:	00190913          	addi	s2,s2,1
 4002b38:	fff40413          	addi	s0,s0,-1
 4002b3c:	fa0a8ee3          	beqz	s5,4002af8 <_vfprintf_r+0x17a8>
 4002b40:	000dc683          	lbu	a3,0(s11)
 4002b44:	fad91ae3          	bne	s2,a3,4002af8 <_vfprintf_r+0x17a8>
 4002b48:	0ff00793          	li	a5,255
 4002b4c:	faf906e3          	beq	s2,a5,4002af8 <_vfprintf_r+0x17a8>
 4002b50:	50099463          	bnez	s3,4003058 <_vfprintf_r+0x1d08>
 4002b54:	00900793          	li	a5,9
 4002b58:	5097e063          	bltu	a5,s1,4003058 <_vfprintf_r+0x1d08>
 4002b5c:	000c0893          	mv	a7,s8
 4002b60:	1c010793          	addi	a5,sp,448
 4002b64:	000b8c13          	mv	s8,s7
 4002b68:	00040b93          	mv	s7,s0
 4002b6c:	01212e23          	sw	s2,28(sp)
 4002b70:	01812483          	lw	s1,24(sp)
 4002b74:	02012983          	lw	s3,32(sp)
 4002b78:	01012403          	lw	s0,16(sp)
 4002b7c:	03b12c23          	sw	s11,56(sp)
 4002b80:	41778933          	sub	s2,a5,s7
 4002b84:	000b0a93          	mv	s5,s6
 4002b88:	ac4ff06f          	j	4001e4c <_vfprintf_r+0xafc>
 4002b8c:	0f812703          	lw	a4,248(sp)
 4002b90:	0000f617          	auipc	a2,0xf
 4002b94:	7e060613          	addi	a2,a2,2016 # 4012370 <__clz_tab+0x140>
 4002b98:	00c8a023          	sw	a2,0(a7)
 4002b9c:	00178793          	addi	a5,a5,1
 4002ba0:	00100613          	li	a2,1
 4002ba4:	00170713          	addi	a4,a4,1
 4002ba8:	00c8a223          	sw	a2,4(a7)
 4002bac:	0ef12e23          	sw	a5,252(sp)
 4002bb0:	0ee12c23          	sw	a4,248(sp)
 4002bb4:	00700613          	li	a2,7
 4002bb8:	00888893          	addi	a7,a7,8
 4002bbc:	4ee64c63          	blt	a2,a4,40030b4 <_vfprintf_r+0x1d64>
 4002bc0:	14069a63          	bnez	a3,4002d14 <_vfprintf_r+0x19c4>
 4002bc4:	01c12683          	lw	a3,28(sp)
 4002bc8:	001af713          	andi	a4,s5,1
 4002bcc:	00d76733          	or	a4,a4,a3
 4002bd0:	00071463          	bnez	a4,4002bd8 <_vfprintf_r+0x1888>
 4002bd4:	a75fe06f          	j	4001648 <_vfprintf_r+0x2f8>
 4002bd8:	02c12703          	lw	a4,44(sp)
 4002bdc:	02812683          	lw	a3,40(sp)
 4002be0:	00e8a023          	sw	a4,0(a7)
 4002be4:	0f812703          	lw	a4,248(sp)
 4002be8:	00f687b3          	add	a5,a3,a5
 4002bec:	00d8a223          	sw	a3,4(a7)
 4002bf0:	00170713          	addi	a4,a4,1
 4002bf4:	0ef12e23          	sw	a5,252(sp)
 4002bf8:	0ee12c23          	sw	a4,248(sp)
 4002bfc:	00700693          	li	a3,7
 4002c00:	5ae6ca63          	blt	a3,a4,40031b4 <_vfprintf_r+0x1e64>
 4002c04:	00888893          	addi	a7,a7,8
 4002c08:	1400006f          	j	4002d48 <_vfprintf_r+0x19f8>
 4002c0c:	00040d13          	mv	s10,s0
 4002c10:	00048c13          	mv	s8,s1
 4002c14:	fa0ff06f          	j	40023b4 <_vfprintf_r+0x1064>
 4002c18:	040af793          	andi	a5,s5,64
 4002c1c:	1a078e63          	beqz	a5,4002dd8 <_vfprintf_r+0x1a88>
 4002c20:	01412783          	lw	a5,20(sp)
 4002c24:	00000913          	li	s2,0
 4002c28:	00e12a23          	sw	a4,20(sp)
 4002c2c:	0007dd83          	lhu	s11,0(a5)
 4002c30:	d1dff06f          	j	400294c <_vfprintf_r+0x15fc>
 4002c34:	0f410613          	addi	a2,sp,244
 4002c38:	000c0593          	mv	a1,s8
 4002c3c:	000d0513          	mv	a0,s10
 4002c40:	394080ef          	jal	ra,400afd4 <__sprint_r>
 4002c44:	f6051863          	bnez	a0,40023b4 <_vfprintf_r+0x1064>
 4002c48:	0fc12783          	lw	a5,252(sp)
 4002c4c:	11c10893          	addi	a7,sp,284
 4002c50:	d30ff06f          	j	4002180 <_vfprintf_r+0xe30>
 4002c54:	00010697          	auipc	a3,0x10
 4002c58:	8cc68693          	addi	a3,a3,-1844 # 4012520 <zeroes.0>
 4002c5c:	00d8a023          	sw	a3,0(a7)
 4002c60:	0098a223          	sw	s1,4(a7)
 4002c64:	009787b3          	add	a5,a5,s1
 4002c68:	00170713          	addi	a4,a4,1
 4002c6c:	0ef12e23          	sw	a5,252(sp)
 4002c70:	0ee12c23          	sw	a4,248(sp)
 4002c74:	00700693          	li	a3,7
 4002c78:	00e6c463          	blt	a3,a4,4002c80 <_vfprintf_r+0x1930>
 4002c7c:	9c9fe06f          	j	4001644 <_vfprintf_r+0x2f4>
 4002c80:	f75fe06f          	j	4001bf4 <_vfprintf_r+0x8a4>
 4002c84:	10012783          	lw	a5,256(sp)
 4002c88:	0b010593          	addi	a1,sp,176
 4002c8c:	0c010513          	addi	a0,sp,192
 4002c90:	0cf12023          	sw	a5,192(sp)
 4002c94:	10412783          	lw	a5,260(sp)
 4002c98:	0a012823          	sw	zero,176(sp)
 4002c9c:	0a012a23          	sw	zero,180(sp)
 4002ca0:	0cf12223          	sw	a5,196(sp)
 4002ca4:	10812783          	lw	a5,264(sp)
 4002ca8:	0a012c23          	sw	zero,184(sp)
 4002cac:	0a012e23          	sw	zero,188(sp)
 4002cb0:	0cf12423          	sw	a5,200(sp)
 4002cb4:	10c12783          	lw	a5,268(sp)
 4002cb8:	0cf12623          	sw	a5,204(sp)
 4002cbc:	6c50b0ef          	jal	ra,400eb80 <__letf2>
 4002cc0:	01012883          	lw	a7,16(sp)
 4002cc4:	3a0542e3          	bltz	a0,4003868 <_vfprintf_r+0x2518>
 4002cc8:	0d714783          	lbu	a5,215(sp)
 4002ccc:	04700713          	li	a4,71
 4002cd0:	0000fb97          	auipc	s7,0xf
 4002cd4:	660b8b93          	addi	s7,s7,1632 # 4012330 <__clz_tab+0x100>
 4002cd8:	40974063          	blt	a4,s1,40030d8 <_vfprintf_r+0x1d88>
 4002cdc:	00012823          	sw	zero,16(sp)
 4002ce0:	02012223          	sw	zero,36(sp)
 4002ce4:	02012023          	sw	zero,32(sp)
 4002ce8:	00012c23          	sw	zero,24(sp)
 4002cec:	f7fafa93          	andi	s5,s5,-129
 4002cf0:	00300b13          	li	s6,3
 4002cf4:	00300913          	li	s2,3
 4002cf8:	00000c93          	li	s9,0
 4002cfc:	86079863          	bnez	a5,4001d6c <_vfprintf_r+0xa1c>
 4002d00:	87dfe06f          	j	400157c <_vfprintf_r+0x22c>
 4002d04:	00c12783          	lw	a5,12(sp)
 4002d08:	00040b93          	mv	s7,s0
 4002d0c:	00f72023          	sw	a5,0(a4)
 4002d10:	981fe06f          	j	4001690 <_vfprintf_r+0x340>
 4002d14:	02c12703          	lw	a4,44(sp)
 4002d18:	02812603          	lw	a2,40(sp)
 4002d1c:	00888893          	addi	a7,a7,8
 4002d20:	fee8ac23          	sw	a4,-8(a7)
 4002d24:	0f812703          	lw	a4,248(sp)
 4002d28:	00f607b3          	add	a5,a2,a5
 4002d2c:	fec8ae23          	sw	a2,-4(a7)
 4002d30:	00170713          	addi	a4,a4,1
 4002d34:	0ef12e23          	sw	a5,252(sp)
 4002d38:	0ee12c23          	sw	a4,248(sp)
 4002d3c:	00700613          	li	a2,7
 4002d40:	46e64a63          	blt	a2,a4,40031b4 <_vfprintf_r+0x1e64>
 4002d44:	3e06c2e3          	bltz	a3,4003928 <_vfprintf_r+0x25d8>
 4002d48:	01c12683          	lw	a3,28(sp)
 4002d4c:	00170713          	addi	a4,a4,1
 4002d50:	0178a023          	sw	s7,0(a7)
 4002d54:	00f687b3          	add	a5,a3,a5
 4002d58:	00d8a223          	sw	a3,4(a7)
 4002d5c:	0ef12e23          	sw	a5,252(sp)
 4002d60:	0ee12c23          	sw	a4,248(sp)
 4002d64:	00700693          	li	a3,7
 4002d68:	00e6c463          	blt	a3,a4,4002d70 <_vfprintf_r+0x1a20>
 4002d6c:	8d9fe06f          	j	4001644 <_vfprintf_r+0x2f4>
 4002d70:	e85fe06f          	j	4001bf4 <_vfprintf_r+0x8a4>
 4002d74:	000b8513          	mv	a0,s7
 4002d78:	03112e23          	sw	a7,60(sp)
 4002d7c:	60c050ef          	jal	ra,4008388 <strlen>
 4002d80:	0d714783          	lbu	a5,215(sp)
 4002d84:	fff54b13          	not	s6,a0
 4002d88:	41fb5b13          	srai	s6,s6,0x1f
 4002d8c:	01b12a23          	sw	s11,20(sp)
 4002d90:	00012823          	sw	zero,16(sp)
 4002d94:	02012223          	sw	zero,36(sp)
 4002d98:	02012023          	sw	zero,32(sp)
 4002d9c:	00012c23          	sw	zero,24(sp)
 4002da0:	03c12883          	lw	a7,60(sp)
 4002da4:	00050913          	mv	s2,a0
 4002da8:	01657b33          	and	s6,a0,s6
 4002dac:	00000c93          	li	s9,0
 4002db0:	00078463          	beqz	a5,4002db8 <_vfprintf_r+0x1a68>
 4002db4:	fb9fe06f          	j	4001d6c <_vfprintf_r+0xa1c>
 4002db8:	fc4fe06f          	j	400157c <_vfprintf_r+0x22c>
 4002dbc:	200af793          	andi	a5,s5,512
 4002dc0:	3c078063          	beqz	a5,4003180 <_vfprintf_r+0x1e30>
 4002dc4:	01412783          	lw	a5,20(sp)
 4002dc8:	00000913          	li	s2,0
 4002dcc:	00e12a23          	sw	a4,20(sp)
 4002dd0:	0007cd83          	lbu	s11,0(a5)
 4002dd4:	8ccff06f          	j	4001ea0 <_vfprintf_r+0xb50>
 4002dd8:	200af793          	andi	a5,s5,512
 4002ddc:	38078863          	beqz	a5,400316c <_vfprintf_r+0x1e1c>
 4002de0:	01412783          	lw	a5,20(sp)
 4002de4:	00000913          	li	s2,0
 4002de8:	00e12a23          	sw	a4,20(sp)
 4002dec:	0007cd83          	lbu	s11,0(a5)
 4002df0:	b5dff06f          	j	400294c <_vfprintf_r+0x15fc>
 4002df4:	200b7793          	andi	a5,s6,512
 4002df8:	34078e63          	beqz	a5,4003154 <_vfprintf_r+0x1e04>
 4002dfc:	01412783          	lw	a5,20(sp)
 4002e00:	00000913          	li	s2,0
 4002e04:	00d12a23          	sw	a3,20(sp)
 4002e08:	0007cd83          	lbu	s11,0(a5)
 4002e0c:	00100793          	li	a5,1
 4002e10:	810ff06f          	j	4001e20 <_vfprintf_r+0xad0>
 4002e14:	200af793          	andi	a5,s5,512
 4002e18:	32078263          	beqz	a5,400313c <_vfprintf_r+0x1dec>
 4002e1c:	01412783          	lw	a5,20(sp)
 4002e20:	00e12a23          	sw	a4,20(sp)
 4002e24:	00078d83          	lb	s11,0(a5)
 4002e28:	41fdd913          	srai	s2,s11,0x1f
 4002e2c:	00090793          	mv	a5,s2
 4002e30:	8f8ff06f          	j	4001f28 <_vfprintf_r+0xbd8>
 4002e34:	10c12783          	lw	a5,268(sp)
 4002e38:	3407ce63          	bltz	a5,4003194 <_vfprintf_r+0x1e44>
 4002e3c:	0d714783          	lbu	a5,215(sp)
 4002e40:	04700713          	li	a4,71
 4002e44:	0000fb97          	auipc	s7,0xf
 4002e48:	4f4b8b93          	addi	s7,s7,1268 # 4012338 <__clz_tab+0x108>
 4002e4c:	e89758e3          	bge	a4,s1,4002cdc <_vfprintf_r+0x198c>
 4002e50:	0000fb97          	auipc	s7,0xf
 4002e54:	4ecb8b93          	addi	s7,s7,1260 # 401233c <__clz_tab+0x10c>
 4002e58:	e85ff06f          	j	4002cdc <_vfprintf_r+0x198c>
 4002e5c:	0000f697          	auipc	a3,0xf
 4002e60:	6c468693          	addi	a3,a3,1732 # 4012520 <zeroes.0>
 4002e64:	009787b3          	add	a5,a5,s1
 4002e68:	00170713          	addi	a4,a4,1
 4002e6c:	00d8a023          	sw	a3,0(a7)
 4002e70:	0098a223          	sw	s1,4(a7)
 4002e74:	0ef12e23          	sw	a5,252(sp)
 4002e78:	0ee12c23          	sw	a4,248(sp)
 4002e7c:	00700693          	li	a3,7
 4002e80:	00888893          	addi	a7,a7,8
 4002e84:	eee6d863          	bge	a3,a4,4002574 <_vfprintf_r+0x1224>
 4002e88:	0f410613          	addi	a2,sp,244
 4002e8c:	000c0593          	mv	a1,s8
 4002e90:	000d0513          	mv	a0,s10
 4002e94:	140080ef          	jal	ra,400afd4 <__sprint_r>
 4002e98:	d0051e63          	bnez	a0,40023b4 <_vfprintf_r+0x1064>
 4002e9c:	0fc12783          	lw	a5,252(sp)
 4002ea0:	11c10893          	addi	a7,sp,284
 4002ea4:	ed0ff06f          	j	4002574 <_vfprintf_r+0x1224>
 4002ea8:	01c12703          	lw	a4,28(sp)
 4002eac:	02012c83          	lw	s9,32(sp)
 4002eb0:	01512c23          	sw	s5,24(sp)
 4002eb4:	02812e23          	sw	s0,60(sp)
 4002eb8:	05312023          	sw	s3,64(sp)
 4002ebc:	03612023          	sw	s6,32(sp)
 4002ec0:	02412983          	lw	s3,36(sp)
 4002ec4:	03712223          	sw	s7,36(sp)
 4002ec8:	00eb8db3          	add	s11,s7,a4
 4002ecc:	03812403          	lw	s0,56(sp)
 4002ed0:	04412a83          	lw	s5,68(sp)
 4002ed4:	04812b03          	lw	s6,72(sp)
 4002ed8:	00700913          	li	s2,7
 4002edc:	000c0b93          	mv	s7,s8
 4002ee0:	080c8863          	beqz	s9,4002f70 <_vfprintf_r+0x1c20>
 4002ee4:	08099863          	bnez	s3,4002f74 <_vfprintf_r+0x1c24>
 4002ee8:	fff40413          	addi	s0,s0,-1
 4002eec:	fffc8c93          	addi	s9,s9,-1
 4002ef0:	0f812703          	lw	a4,248(sp)
 4002ef4:	015787b3          	add	a5,a5,s5
 4002ef8:	0168a023          	sw	s6,0(a7)
 4002efc:	00170713          	addi	a4,a4,1
 4002f00:	0158a223          	sw	s5,4(a7)
 4002f04:	0ef12e23          	sw	a5,252(sp)
 4002f08:	0ee12c23          	sw	a4,248(sp)
 4002f0c:	00888893          	addi	a7,a7,8
 4002f10:	10e94263          	blt	s2,a4,4003014 <_vfprintf_r+0x1cc4>
 4002f14:	00044683          	lbu	a3,0(s0)
 4002f18:	409d8633          	sub	a2,s11,s1
 4002f1c:	00068c13          	mv	s8,a3
 4002f20:	00d65463          	bge	a2,a3,4002f28 <_vfprintf_r+0x1bd8>
 4002f24:	00060c13          	mv	s8,a2
 4002f28:	03805663          	blez	s8,4002f54 <_vfprintf_r+0x1c04>
 4002f2c:	0f812683          	lw	a3,248(sp)
 4002f30:	018787b3          	add	a5,a5,s8
 4002f34:	0098a023          	sw	s1,0(a7)
 4002f38:	00168693          	addi	a3,a3,1
 4002f3c:	0188a223          	sw	s8,4(a7)
 4002f40:	0ef12e23          	sw	a5,252(sp)
 4002f44:	0ed12c23          	sw	a3,248(sp)
 4002f48:	0ed94663          	blt	s2,a3,4003034 <_vfprintf_r+0x1ce4>
 4002f4c:	00044683          	lbu	a3,0(s0)
 4002f50:	00888893          	addi	a7,a7,8
 4002f54:	fffc4613          	not	a2,s8
 4002f58:	41f65613          	srai	a2,a2,0x1f
 4002f5c:	00cc7733          	and	a4,s8,a2
 4002f60:	40e68c33          	sub	s8,a3,a4
 4002f64:	01804c63          	bgtz	s8,4002f7c <_vfprintf_r+0x1c2c>
 4002f68:	00d484b3          	add	s1,s1,a3
 4002f6c:	f60c9ce3          	bnez	s9,4002ee4 <_vfprintf_r+0x1b94>
 4002f70:	66098c63          	beqz	s3,40035e8 <_vfprintf_r+0x2298>
 4002f74:	fff98993          	addi	s3,s3,-1
 4002f78:	f79ff06f          	j	4002ef0 <_vfprintf_r+0x1ba0>
 4002f7c:	0f812683          	lw	a3,248(sp)
 4002f80:	018a4863          	blt	s4,s8,4002f90 <_vfprintf_r+0x1c40>
 4002f84:	05c0006f          	j	4002fe0 <_vfprintf_r+0x1c90>
 4002f88:	ff0c0c13          	addi	s8,s8,-16
 4002f8c:	058a5a63          	bge	s4,s8,4002fe0 <_vfprintf_r+0x1c90>
 4002f90:	01078793          	addi	a5,a5,16
 4002f94:	00168693          	addi	a3,a3,1
 4002f98:	0000f717          	auipc	a4,0xf
 4002f9c:	58870713          	addi	a4,a4,1416 # 4012520 <zeroes.0>
 4002fa0:	00e8a023          	sw	a4,0(a7)
 4002fa4:	0148a223          	sw	s4,4(a7)
 4002fa8:	0ef12e23          	sw	a5,252(sp)
 4002fac:	0ed12c23          	sw	a3,248(sp)
 4002fb0:	00888893          	addi	a7,a7,8
 4002fb4:	fcd95ae3          	bge	s2,a3,4002f88 <_vfprintf_r+0x1c38>
 4002fb8:	0f410613          	addi	a2,sp,244
 4002fbc:	000b8593          	mv	a1,s7
 4002fc0:	000d0513          	mv	a0,s10
 4002fc4:	010080ef          	jal	ra,400afd4 <__sprint_r>
 4002fc8:	6c051e63          	bnez	a0,40036a4 <_vfprintf_r+0x2354>
 4002fcc:	ff0c0c13          	addi	s8,s8,-16
 4002fd0:	0fc12783          	lw	a5,252(sp)
 4002fd4:	0f812683          	lw	a3,248(sp)
 4002fd8:	11c10893          	addi	a7,sp,284
 4002fdc:	fb8a4ae3          	blt	s4,s8,4002f90 <_vfprintf_r+0x1c40>
 4002fe0:	018787b3          	add	a5,a5,s8
 4002fe4:	00168693          	addi	a3,a3,1
 4002fe8:	0000f717          	auipc	a4,0xf
 4002fec:	53870713          	addi	a4,a4,1336 # 4012520 <zeroes.0>
 4002ff0:	00e8a023          	sw	a4,0(a7)
 4002ff4:	0188a223          	sw	s8,4(a7)
 4002ff8:	0ef12e23          	sw	a5,252(sp)
 4002ffc:	0ed12c23          	sw	a3,248(sp)
 4003000:	6cd94463          	blt	s2,a3,40036c8 <_vfprintf_r+0x2378>
 4003004:	00044683          	lbu	a3,0(s0)
 4003008:	00888893          	addi	a7,a7,8
 400300c:	00d484b3          	add	s1,s1,a3
 4003010:	f5dff06f          	j	4002f6c <_vfprintf_r+0x1c1c>
 4003014:	0f410613          	addi	a2,sp,244
 4003018:	000b8593          	mv	a1,s7
 400301c:	000d0513          	mv	a0,s10
 4003020:	7b5070ef          	jal	ra,400afd4 <__sprint_r>
 4003024:	68051063          	bnez	a0,40036a4 <_vfprintf_r+0x2354>
 4003028:	0fc12783          	lw	a5,252(sp)
 400302c:	11c10893          	addi	a7,sp,284
 4003030:	ee5ff06f          	j	4002f14 <_vfprintf_r+0x1bc4>
 4003034:	0f410613          	addi	a2,sp,244
 4003038:	000b8593          	mv	a1,s7
 400303c:	000d0513          	mv	a0,s10
 4003040:	795070ef          	jal	ra,400afd4 <__sprint_r>
 4003044:	66051063          	bnez	a0,40036a4 <_vfprintf_r+0x2354>
 4003048:	00044683          	lbu	a3,0(s0)
 400304c:	0fc12783          	lw	a5,252(sp)
 4003050:	11c10893          	addi	a7,sp,284
 4003054:	f01ff06f          	j	4002f54 <_vfprintf_r+0x1c04>
 4003058:	04412783          	lw	a5,68(sp)
 400305c:	04812583          	lw	a1,72(sp)
 4003060:	00000913          	li	s2,0
 4003064:	40f40433          	sub	s0,s0,a5
 4003068:	00078613          	mv	a2,a5
 400306c:	00040513          	mv	a0,s0
 4003070:	3a4050ef          	jal	ra,4008414 <strncpy>
 4003074:	001dc583          	lbu	a1,1(s11)
 4003078:	00a00613          	li	a2,10
 400307c:	00000693          	li	a3,0
 4003080:	00b03833          	snez	a6,a1
 4003084:	00048513          	mv	a0,s1
 4003088:	00098593          	mv	a1,s3
 400308c:	010d8db3          	add	s11,s11,a6
 4003090:	1890a0ef          	jal	ra,400da18 <__udivdi3>
 4003094:	a7dff06f          	j	4002b10 <_vfprintf_r+0x17c0>
 4003098:	00900793          	li	a5,9
 400309c:	a697eae3          	bltu	a5,s1,4002b10 <_vfprintf_r+0x17c0>
 40030a0:	abdff06f          	j	4002b5c <_vfprintf_r+0x180c>
 40030a4:	00170713          	addi	a4,a4,1
 40030a8:	00868893          	addi	a7,a3,8
 40030ac:	00068913          	mv	s2,a3
 40030b0:	b21fe06f          	j	4001bd0 <_vfprintf_r+0x880>
 40030b4:	0f410613          	addi	a2,sp,244
 40030b8:	000c0593          	mv	a1,s8
 40030bc:	000d0513          	mv	a0,s10
 40030c0:	715070ef          	jal	ra,400afd4 <__sprint_r>
 40030c4:	ae051863          	bnez	a0,40023b4 <_vfprintf_r+0x1064>
 40030c8:	0dc12683          	lw	a3,220(sp)
 40030cc:	0fc12783          	lw	a5,252(sp)
 40030d0:	11c10893          	addi	a7,sp,284
 40030d4:	aedff06f          	j	4002bc0 <_vfprintf_r+0x1870>
 40030d8:	0000fb97          	auipc	s7,0xf
 40030dc:	25cb8b93          	addi	s7,s7,604 # 4012334 <__clz_tab+0x104>
 40030e0:	bfdff06f          	j	4002cdc <_vfprintf_r+0x198c>
 40030e4:	0f410613          	addi	a2,sp,244
 40030e8:	000c0593          	mv	a1,s8
 40030ec:	000d0513          	mv	a0,s10
 40030f0:	6e5070ef          	jal	ra,400afd4 <__sprint_r>
 40030f4:	ac051063          	bnez	a0,40023b4 <_vfprintf_r+0x1064>
 40030f8:	0fc12783          	lw	a5,252(sp)
 40030fc:	11c10893          	addi	a7,sp,284
 4003100:	c5cff06f          	j	400255c <_vfprintf_r+0x120c>
 4003104:	00600913          	li	s2,6
 4003108:	8d9ff06f          	j	40029e0 <_vfprintf_r+0x1690>
 400310c:	01c12703          	lw	a4,28(sp)
 4003110:	00eb8833          	add	a6,s7,a4
 4003114:	40d70633          	sub	a2,a4,a3
 4003118:	409806b3          	sub	a3,a6,s1
 400311c:	00060913          	mv	s2,a2
 4003120:	cec6dc63          	bge	a3,a2,4002618 <_vfprintf_r+0x12c8>
 4003124:	00068913          	mv	s2,a3
 4003128:	cf0ff06f          	j	4002618 <_vfprintf_r+0x12c8>
 400312c:	00c12783          	lw	a5,12(sp)
 4003130:	00040b93          	mv	s7,s0
 4003134:	00f71023          	sh	a5,0(a4)
 4003138:	d58fe06f          	j	4001690 <_vfprintf_r+0x340>
 400313c:	01412783          	lw	a5,20(sp)
 4003140:	00e12a23          	sw	a4,20(sp)
 4003144:	0007ad83          	lw	s11,0(a5)
 4003148:	41fdd913          	srai	s2,s11,0x1f
 400314c:	00090793          	mv	a5,s2
 4003150:	dd9fe06f          	j	4001f28 <_vfprintf_r+0xbd8>
 4003154:	01412783          	lw	a5,20(sp)
 4003158:	00000913          	li	s2,0
 400315c:	00d12a23          	sw	a3,20(sp)
 4003160:	0007ad83          	lw	s11,0(a5)
 4003164:	00100793          	li	a5,1
 4003168:	cb9fe06f          	j	4001e20 <_vfprintf_r+0xad0>
 400316c:	01412783          	lw	a5,20(sp)
 4003170:	00000913          	li	s2,0
 4003174:	00e12a23          	sw	a4,20(sp)
 4003178:	0007ad83          	lw	s11,0(a5)
 400317c:	fd0ff06f          	j	400294c <_vfprintf_r+0x15fc>
 4003180:	01412783          	lw	a5,20(sp)
 4003184:	00000913          	li	s2,0
 4003188:	00e12a23          	sw	a4,20(sp)
 400318c:	0007ad83          	lw	s11,0(a5)
 4003190:	d11fe06f          	j	4001ea0 <_vfprintf_r+0xb50>
 4003194:	02d00793          	li	a5,45
 4003198:	0cf10ba3          	sb	a5,215(sp)
 400319c:	ca5ff06f          	j	4002e40 <_vfprintf_r+0x1af0>
 40031a0:	0f410613          	addi	a2,sp,244
 40031a4:	000c0593          	mv	a1,s8
 40031a8:	000d0513          	mv	a0,s10
 40031ac:	629070ef          	jal	ra,400afd4 <__sprint_r>
 40031b0:	cf4fe06f          	j	40016a4 <_vfprintf_r+0x354>
 40031b4:	0f410613          	addi	a2,sp,244
 40031b8:	000c0593          	mv	a1,s8
 40031bc:	000d0513          	mv	a0,s10
 40031c0:	615070ef          	jal	ra,400afd4 <__sprint_r>
 40031c4:	9e051863          	bnez	a0,40023b4 <_vfprintf_r+0x1064>
 40031c8:	0dc12683          	lw	a3,220(sp)
 40031cc:	0fc12783          	lw	a5,252(sp)
 40031d0:	0f812703          	lw	a4,248(sp)
 40031d4:	11c10893          	addi	a7,sp,284
 40031d8:	b6dff06f          	j	4002d44 <_vfprintf_r+0x19f4>
 40031dc:	03000793          	li	a5,48
 40031e0:	0cf10c23          	sb	a5,216(sp)
 40031e4:	05800793          	li	a5,88
 40031e8:	002ae713          	ori	a4,s5,2
 40031ec:	0cf10ca3          	sb	a5,217(sp)
 40031f0:	04e12823          	sw	a4,80(sp)
 40031f4:	06300793          	li	a5,99
 40031f8:	00012823          	sw	zero,16(sp)
 40031fc:	15c10b93          	addi	s7,sp,348
 4003200:	0d97cae3          	blt	a5,s9,4003ad4 <_vfprintf_r+0x2784>
 4003204:	10c12e03          	lw	t3,268(sp)
 4003208:	fdf4f793          	andi	a5,s1,-33
 400320c:	02f12e23          	sw	a5,60(sp)
 4003210:	06012423          	sw	zero,104(sp)
 4003214:	10012e83          	lw	t4,256(sp)
 4003218:	10412f03          	lw	t5,260(sp)
 400321c:	10812f83          	lw	t6,264(sp)
 4003220:	102aea93          	ori	s5,s5,258
 4003224:	480e4863          	bltz	t3,40036b4 <_vfprintf_r+0x2364>
 4003228:	06100793          	li	a5,97
 400322c:	1af48ae3          	beq	s1,a5,4003be0 <_vfprintf_r+0x2890>
 4003230:	04100793          	li	a5,65
 4003234:	00f48463          	beq	s1,a5,400323c <_vfprintf_r+0x1eec>
 4003238:	e6cfe06f          	j	40018a4 <_vfprintf_r+0x554>
 400323c:	0c010b13          	addi	s6,sp,192
 4003240:	000b0513          	mv	a0,s6
 4003244:	05112a23          	sw	a7,84(sp)
 4003248:	0de12223          	sw	t5,196(sp)
 400324c:	0df12423          	sw	t6,200(sp)
 4003250:	0dd12023          	sw	t4,192(sp)
 4003254:	0dc12623          	sw	t3,204(sp)
 4003258:	5c00e0ef          	jal	ra,4011818 <__trunctfdf2>
 400325c:	0dc10613          	addi	a2,sp,220
 4003260:	6a9040ef          	jal	ra,4008108 <frexp>
 4003264:	00058613          	mv	a2,a1
 4003268:	00050593          	mv	a1,a0
 400326c:	000b0513          	mv	a0,s6
 4003270:	3740e0ef          	jal	ra,40115e4 <__extenddftf2>
 4003274:	0c012e83          	lw	t4,192(sp)
 4003278:	0000f797          	auipc	a5,0xf
 400327c:	28878793          	addi	a5,a5,648 # 4012500 <__clz_tab+0x2d0>
 4003280:	0007ae03          	lw	t3,0(a5)
 4003284:	0bd12023          	sw	t4,160(sp)
 4003288:	0c412e83          	lw	t4,196(sp)
 400328c:	0047a683          	lw	a3,4(a5)
 4003290:	0087a703          	lw	a4,8(a5)
 4003294:	0bd12223          	sw	t4,164(sp)
 4003298:	0c812e83          	lw	t4,200(sp)
 400329c:	00c7a783          	lw	a5,12(a5)
 40032a0:	0a010613          	addi	a2,sp,160
 40032a4:	0bd12423          	sw	t4,168(sp)
 40032a8:	0cc12e83          	lw	t4,204(sp)
 40032ac:	0b010913          	addi	s2,sp,176
 40032b0:	00060593          	mv	a1,a2
 40032b4:	00c12c23          	sw	a2,24(sp)
 40032b8:	00090513          	mv	a0,s2
 40032bc:	09010613          	addi	a2,sp,144
 40032c0:	04c12023          	sw	a2,64(sp)
 40032c4:	0bd12623          	sw	t4,172(sp)
 40032c8:	09c12823          	sw	t3,144(sp)
 40032cc:	08d12a23          	sw	a3,148(sp)
 40032d0:	08e12c23          	sw	a4,152(sp)
 40032d4:	08f12e23          	sw	a5,156(sp)
 40032d8:	2150b0ef          	jal	ra,400ecec <__multf3>
 40032dc:	0b012683          	lw	a3,176(sp)
 40032e0:	0b412e03          	lw	t3,180(sp)
 40032e4:	0b812e83          	lw	t4,184(sp)
 40032e8:	0bc12f03          	lw	t5,188(sp)
 40032ec:	00090593          	mv	a1,s2
 40032f0:	000b0513          	mv	a0,s6
 40032f4:	0cd12023          	sw	a3,192(sp)
 40032f8:	04d12623          	sw	a3,76(sp)
 40032fc:	0dc12223          	sw	t3,196(sp)
 4003300:	03c12223          	sw	t3,36(sp)
 4003304:	0dd12423          	sw	t4,200(sp)
 4003308:	03d12023          	sw	t4,32(sp)
 400330c:	0de12623          	sw	t5,204(sp)
 4003310:	01e12e23          	sw	t5,28(sp)
 4003314:	0a012823          	sw	zero,176(sp)
 4003318:	0a012a23          	sw	zero,180(sp)
 400331c:	0a012c23          	sw	zero,184(sp)
 4003320:	0a012e23          	sw	zero,188(sp)
 4003324:	6240b0ef          	jal	ra,400e948 <__eqtf2>
 4003328:	01c12f03          	lw	t5,28(sp)
 400332c:	02012e83          	lw	t4,32(sp)
 4003330:	02412e03          	lw	t3,36(sp)
 4003334:	04c12683          	lw	a3,76(sp)
 4003338:	05412883          	lw	a7,84(sp)
 400333c:	00051663          	bnez	a0,4003348 <_vfprintf_r+0x1ff8>
 4003340:	00100793          	li	a5,1
 4003344:	0cf12e23          	sw	a5,220(sp)
 4003348:	0000f797          	auipc	a5,0xf
 400334c:	00c78793          	addi	a5,a5,12 # 4012354 <__clz_tab+0x124>
 4003350:	02f12223          	sw	a5,36(sp)
 4003354:	0000f797          	auipc	a5,0xf
 4003358:	18c78793          	addi	a5,a5,396 # 40124e0 <__clz_tab+0x2b0>
 400335c:	0007a703          	lw	a4,0(a5)
 4003360:	07512623          	sw	s5,108(sp)
 4003364:	06912a23          	sw	s1,116(sp)
 4003368:	04e12c23          	sw	a4,88(sp)
 400336c:	0047a703          	lw	a4,4(a5)
 4003370:	07312c23          	sw	s3,120(sp)
 4003374:	000b8a93          	mv	s5,s7
 4003378:	04e12e23          	sw	a4,92(sp)
 400337c:	0087a703          	lw	a4,8(a5)
 4003380:	00c7a783          	lw	a5,12(a5)
 4003384:	09a12223          	sw	s10,132(sp)
 4003388:	06e12023          	sw	a4,96(sp)
 400338c:	fffc8713          	addi	a4,s9,-1
 4003390:	09812423          	sw	s8,136(sp)
 4003394:	09712623          	sw	s7,140(sp)
 4003398:	01812483          	lw	s1,24(sp)
 400339c:	06f12223          	sw	a5,100(sp)
 40033a0:	06812823          	sw	s0,112(sp)
 40033a4:	00070993          	mv	s3,a4
 40033a8:	07912e23          	sw	s9,124(sp)
 40033ac:	09112023          	sw	a7,128(sp)
 40033b0:	00068b93          	mv	s7,a3
 40033b4:	000e0c13          	mv	s8,t3
 40033b8:	000e8d13          	mv	s10,t4
 40033bc:	000f0d93          	mv	s11,t5
 40033c0:	0500006f          	j	4003410 <_vfprintf_r+0x20c0>
 40033c4:	00090593          	mv	a1,s2
 40033c8:	000b0513          	mv	a0,s6
 40033cc:	02c12023          	sw	a2,32(sp)
 40033d0:	01f12e23          	sw	t6,28(sp)
 40033d4:	00512c23          	sw	t0,24(sp)
 40033d8:	0c512223          	sw	t0,196(sp)
 40033dc:	0df12423          	sw	t6,200(sp)
 40033e0:	0cc12623          	sw	a2,204(sp)
 40033e4:	0d912023          	sw	s9,192(sp)
 40033e8:	0a012823          	sw	zero,176(sp)
 40033ec:	0a012a23          	sw	zero,180(sp)
 40033f0:	0a012c23          	sw	zero,184(sp)
 40033f4:	0a012e23          	sw	zero,188(sp)
 40033f8:	5500b0ef          	jal	ra,400e948 <__eqtf2>
 40033fc:	fff98993          	addi	s3,s3,-1
 4003400:	000c0293          	mv	t0,s8
 4003404:	000d0f93          	mv	t6,s10
 4003408:	000d8613          	mv	a2,s11
 400340c:	0e050863          	beqz	a0,40034fc <_vfprintf_r+0x21ac>
 4003410:	05812783          	lw	a5,88(sp)
 4003414:	00048613          	mv	a2,s1
 4003418:	00090593          	mv	a1,s2
 400341c:	0af12023          	sw	a5,160(sp)
 4003420:	05c12783          	lw	a5,92(sp)
 4003424:	000b0513          	mv	a0,s6
 4003428:	0b712823          	sw	s7,176(sp)
 400342c:	0af12223          	sw	a5,164(sp)
 4003430:	06012783          	lw	a5,96(sp)
 4003434:	0b812a23          	sw	s8,180(sp)
 4003438:	0ba12c23          	sw	s10,184(sp)
 400343c:	0af12423          	sw	a5,168(sp)
 4003440:	06412783          	lw	a5,100(sp)
 4003444:	0bb12e23          	sw	s11,188(sp)
 4003448:	0af12623          	sw	a5,172(sp)
 400344c:	0a10b0ef          	jal	ra,400ecec <__multf3>
 4003450:	000b0513          	mv	a0,s6
 4003454:	7290d0ef          	jal	ra,401137c <__fixtfsi>
 4003458:	00050593          	mv	a1,a0
 400345c:	00050413          	mv	s0,a0
 4003460:	000b0513          	mv	a0,s6
 4003464:	0c012c03          	lw	s8,192(sp)
 4003468:	0c412b83          	lw	s7,196(sp)
 400346c:	0c812d83          	lw	s11,200(sp)
 4003470:	0cc12d03          	lw	s10,204(sp)
 4003474:	0040e0ef          	jal	ra,4011478 <__floatsitf>
 4003478:	0c012683          	lw	a3,192(sp)
 400347c:	04012603          	lw	a2,64(sp)
 4003480:	00048593          	mv	a1,s1
 4003484:	08d12823          	sw	a3,144(sp)
 4003488:	0c412683          	lw	a3,196(sp)
 400348c:	00090513          	mv	a0,s2
 4003490:	0b812023          	sw	s8,160(sp)
 4003494:	08d12a23          	sw	a3,148(sp)
 4003498:	0c812683          	lw	a3,200(sp)
 400349c:	0b712223          	sw	s7,164(sp)
 40034a0:	0bb12423          	sw	s11,168(sp)
 40034a4:	08d12c23          	sw	a3,152(sp)
 40034a8:	0cc12683          	lw	a3,204(sp)
 40034ac:	0ba12623          	sw	s10,172(sp)
 40034b0:	08d12e23          	sw	a3,156(sp)
 40034b4:	1210c0ef          	jal	ra,400fdd4 <__subtf3>
 40034b8:	02412783          	lw	a5,36(sp)
 40034bc:	0b012c83          	lw	s9,176(sp)
 40034c0:	0b412283          	lw	t0,180(sp)
 40034c4:	008786b3          	add	a3,a5,s0
 40034c8:	0006c683          	lbu	a3,0(a3)
 40034cc:	0b812f83          	lw	t6,184(sp)
 40034d0:	0bc12603          	lw	a2,188(sp)
 40034d4:	05512a23          	sw	s5,84(sp)
 40034d8:	00da8023          	sb	a3,0(s5)
 40034dc:	05312623          	sw	s3,76(sp)
 40034e0:	fff00793          	li	a5,-1
 40034e4:	001a8a93          	addi	s5,s5,1
 40034e8:	000c8b93          	mv	s7,s9
 40034ec:	00028c13          	mv	s8,t0
 40034f0:	000f8d13          	mv	s10,t6
 40034f4:	00060d93          	mv	s11,a2
 40034f8:	ecf996e3          	bne	s3,a5,40033c4 <_vfprintf_r+0x2074>
 40034fc:	0000f717          	auipc	a4,0xf
 4003500:	ff470713          	addi	a4,a4,-12 # 40124f0 <__clz_tab+0x2c0>
 4003504:	00072e83          	lw	t4,0(a4)
 4003508:	00472e03          	lw	t3,4(a4)
 400350c:	00872683          	lw	a3,8(a4)
 4003510:	08012883          	lw	a7,128(sp)
 4003514:	00c72703          	lw	a4,12(a4)
 4003518:	000c8393          	mv	t2,s9
 400351c:	01112e23          	sw	a7,28(sp)
 4003520:	00812c23          	sw	s0,24(sp)
 4003524:	000a8d93          	mv	s11,s5
 4003528:	07012403          	lw	s0,112(sp)
 400352c:	06c12a83          	lw	s5,108(sp)
 4003530:	0c712023          	sw	t2,192(sp)
 4003534:	06712823          	sw	t2,112(sp)
 4003538:	0c512223          	sw	t0,196(sp)
 400353c:	06512623          	sw	t0,108(sp)
 4003540:	0df12423          	sw	t6,200(sp)
 4003544:	07f12223          	sw	t6,100(sp)
 4003548:	0cc12623          	sw	a2,204(sp)
 400354c:	06c12023          	sw	a2,96(sp)
 4003550:	0bd12823          	sw	t4,176(sp)
 4003554:	05d12e23          	sw	t4,92(sp)
 4003558:	0bc12a23          	sw	t3,180(sp)
 400355c:	05c12c23          	sw	t3,88(sp)
 4003560:	0ad12c23          	sw	a3,184(sp)
 4003564:	04d12023          	sw	a3,64(sp)
 4003568:	0ae12e23          	sw	a4,188(sp)
 400356c:	02e12023          	sw	a4,32(sp)
 4003570:	00090593          	mv	a1,s2
 4003574:	000b0513          	mv	a0,s6
 4003578:	07412483          	lw	s1,116(sp)
 400357c:	07812983          	lw	s3,120(sp)
 4003580:	08412d03          	lw	s10,132(sp)
 4003584:	08812c03          	lw	s8,136(sp)
 4003588:	08c12b83          	lw	s7,140(sp)
 400358c:	07c12c83          	lw	s9,124(sp)
 4003590:	4880b0ef          	jal	ra,400ea18 <__getf2>
 4003594:	01c12883          	lw	a7,28(sp)
 4003598:	46a04a63          	bgtz	a0,4003a0c <_vfprintf_r+0x26bc>
 400359c:	00090593          	mv	a1,s2
 40035a0:	000b0513          	mv	a0,s6
 40035a4:	3a40b0ef          	jal	ra,400e948 <__eqtf2>
 40035a8:	01c12883          	lw	a7,28(sp)
 40035ac:	00051863          	bnez	a0,40035bc <_vfprintf_r+0x226c>
 40035b0:	01812783          	lw	a5,24(sp)
 40035b4:	0017fb13          	andi	s6,a5,1
 40035b8:	440b1a63          	bnez	s6,4003a0c <_vfprintf_r+0x26bc>
 40035bc:	04c12783          	lw	a5,76(sp)
 40035c0:	03000693          	li	a3,48
 40035c4:	00178713          	addi	a4,a5,1
 40035c8:	00ed8733          	add	a4,s11,a4
 40035cc:	0007c863          	bltz	a5,40035dc <_vfprintf_r+0x228c>
 40035d0:	001d8d93          	addi	s11,s11,1
 40035d4:	fedd8fa3          	sb	a3,-1(s11)
 40035d8:	ffb71ce3          	bne	a4,s11,40035d0 <_vfprintf_r+0x2280>
 40035dc:	417d87b3          	sub	a5,s11,s7
 40035e0:	00f12e23          	sw	a5,28(sp)
 40035e4:	b68fe06f          	j	400194c <_vfprintf_r+0x5fc>
 40035e8:	01c12703          	lw	a4,28(sp)
 40035ec:	000b8c13          	mv	s8,s7
 40035f0:	02412b83          	lw	s7,36(sp)
 40035f4:	02812c23          	sw	s0,56(sp)
 40035f8:	01812a83          	lw	s5,24(sp)
 40035fc:	00eb8733          	add	a4,s7,a4
 4003600:	03c12403          	lw	s0,60(sp)
 4003604:	04012983          	lw	s3,64(sp)
 4003608:	02012b03          	lw	s6,32(sp)
 400360c:	00976463          	bltu	a4,s1,4003614 <_vfprintf_r+0x22c4>
 4003610:	f75fe06f          	j	4002584 <_vfprintf_r+0x1234>
 4003614:	00070493          	mv	s1,a4
 4003618:	f6dfe06f          	j	4002584 <_vfprintf_r+0x1234>
 400361c:	01812703          	lw	a4,24(sp)
 4003620:	ffd00793          	li	a5,-3
 4003624:	00f74463          	blt	a4,a5,400362c <_vfprintf_r+0x22dc>
 4003628:	00ecda63          	bge	s9,a4,400363c <_vfprintf_r+0x22ec>
 400362c:	ffe48493          	addi	s1,s1,-2
 4003630:	fdf4f793          	andi	a5,s1,-33
 4003634:	02f12e23          	sw	a5,60(sp)
 4003638:	b3cfe06f          	j	4001974 <_vfprintf_r+0x624>
 400363c:	01812703          	lw	a4,24(sp)
 4003640:	01c12783          	lw	a5,28(sp)
 4003644:	28f74663          	blt	a4,a5,40038d0 <_vfprintf_r+0x2580>
 4003648:	05012783          	lw	a5,80(sp)
 400364c:	00070913          	mv	s2,a4
 4003650:	0017f793          	andi	a5,a5,1
 4003654:	00078663          	beqz	a5,4003660 <_vfprintf_r+0x2310>
 4003658:	02812783          	lw	a5,40(sp)
 400365c:	00f70933          	add	s2,a4,a5
 4003660:	05012783          	lw	a5,80(sp)
 4003664:	4007f793          	andi	a5,a5,1024
 4003668:	00078663          	beqz	a5,4003674 <_vfprintf_r+0x2324>
 400366c:	01812783          	lw	a5,24(sp)
 4003670:	4af04663          	bgtz	a5,4003b1c <_vfprintf_r+0x27cc>
 4003674:	fff94b13          	not	s6,s2
 4003678:	41fb5b13          	srai	s6,s6,0x1f
 400367c:	01697b33          	and	s6,s2,s6
 4003680:	06700493          	li	s1,103
 4003684:	02012223          	sw	zero,36(sp)
 4003688:	02012023          	sw	zero,32(sp)
 400368c:	c04fe06f          	j	4001a90 <_vfprintf_r+0x740>
 4003690:	0d714783          	lbu	a5,215(sp)
 4003694:	00000c93          	li	s9,0
 4003698:	00078463          	beqz	a5,40036a0 <_vfprintf_r+0x2350>
 400369c:	ed0fe06f          	j	4001d6c <_vfprintf_r+0xa1c>
 40036a0:	eddfd06f          	j	400157c <_vfprintf_r+0x22c>
 40036a4:	000b8c13          	mv	s8,s7
 40036a8:	d0dfe06f          	j	40023b4 <_vfprintf_r+0x1064>
 40036ac:	00012823          	sw	zero,16(sp)
 40036b0:	00078a93          	mv	s5,a5
 40036b4:	800007b7          	lui	a5,0x80000
 40036b8:	01c7ce33          	xor	t3,a5,t3
 40036bc:	02d00793          	li	a5,45
 40036c0:	06f12423          	sw	a5,104(sp)
 40036c4:	b65ff06f          	j	4003228 <_vfprintf_r+0x1ed8>
 40036c8:	0f410613          	addi	a2,sp,244
 40036cc:	000b8593          	mv	a1,s7
 40036d0:	000d0513          	mv	a0,s10
 40036d4:	101070ef          	jal	ra,400afd4 <__sprint_r>
 40036d8:	fc0516e3          	bnez	a0,40036a4 <_vfprintf_r+0x2354>
 40036dc:	00044683          	lbu	a3,0(s0)
 40036e0:	0fc12783          	lw	a5,252(sp)
 40036e4:	11c10893          	addi	a7,sp,284
 40036e8:	00d484b3          	add	s1,s1,a3
 40036ec:	881ff06f          	j	4002f6c <_vfprintf_r+0x1c1c>
 40036f0:	0c010b13          	addi	s6,sp,192
 40036f4:	0e010793          	addi	a5,sp,224
 40036f8:	0dc10713          	addi	a4,sp,220
 40036fc:	0ec10813          	addi	a6,sp,236
 4003700:	000c8693          	mv	a3,s9
 4003704:	00300613          	li	a2,3
 4003708:	000b0593          	mv	a1,s6
 400370c:	000d0513          	mv	a0,s10
 4003710:	05112023          	sw	a7,64(sp)
 4003714:	0dd12023          	sw	t4,192(sp)
 4003718:	03d12223          	sw	t4,36(sp)
 400371c:	0de12223          	sw	t5,196(sp)
 4003720:	03e12023          	sw	t5,32(sp)
 4003724:	0df12423          	sw	t6,200(sp)
 4003728:	01f12e23          	sw	t6,28(sp)
 400372c:	0dc12623          	sw	t3,204(sp)
 4003730:	01c12c23          	sw	t3,24(sp)
 4003734:	30d020ef          	jal	ra,4006240 <_ldtoa_r>
 4003738:	00054703          	lbu	a4,0(a0)
 400373c:	03000793          	li	a5,48
 4003740:	01812e03          	lw	t3,24(sp)
 4003744:	01c12f83          	lw	t6,28(sp)
 4003748:	02012f03          	lw	t5,32(sp)
 400374c:	02412e83          	lw	t4,36(sp)
 4003750:	04012883          	lw	a7,64(sp)
 4003754:	00050b93          	mv	s7,a0
 4003758:	0b010913          	addi	s2,sp,176
 400375c:	06f70c63          	beq	a4,a5,40037d4 <_vfprintf_r+0x2484>
 4003760:	0dc12783          	lw	a5,220(sp)
 4003764:	019787b3          	add	a5,a5,s9
 4003768:	00fb8db3          	add	s11,s7,a5
 400376c:	00090593          	mv	a1,s2
 4003770:	000b0513          	mv	a0,s6
 4003774:	01112c23          	sw	a7,24(sp)
 4003778:	0dd12023          	sw	t4,192(sp)
 400377c:	0de12223          	sw	t5,196(sp)
 4003780:	0df12423          	sw	t6,200(sp)
 4003784:	0dc12623          	sw	t3,204(sp)
 4003788:	0a012823          	sw	zero,176(sp)
 400378c:	0a012a23          	sw	zero,180(sp)
 4003790:	0a012c23          	sw	zero,184(sp)
 4003794:	0a012e23          	sw	zero,188(sp)
 4003798:	1b00b0ef          	jal	ra,400e948 <__eqtf2>
 400379c:	01812883          	lw	a7,24(sp)
 40037a0:	000d8793          	mv	a5,s11
 40037a4:	00051463          	bnez	a0,40037ac <_vfprintf_r+0x245c>
 40037a8:	99cfe06f          	j	4001944 <_vfprintf_r+0x5f4>
 40037ac:	0ec12783          	lw	a5,236(sp)
 40037b0:	01b7e463          	bltu	a5,s11,40037b8 <_vfprintf_r+0x2468>
 40037b4:	990fe06f          	j	4001944 <_vfprintf_r+0x5f4>
 40037b8:	03000693          	li	a3,48
 40037bc:	00178713          	addi	a4,a5,1 # 80000001 <__stack+0x7a000001>
 40037c0:	0ee12623          	sw	a4,236(sp)
 40037c4:	00d78023          	sb	a3,0(a5)
 40037c8:	0ec12783          	lw	a5,236(sp)
 40037cc:	ffb7e8e3          	bltu	a5,s11,40037bc <_vfprintf_r+0x246c>
 40037d0:	974fe06f          	j	4001944 <_vfprintf_r+0x5f4>
 40037d4:	0b010913          	addi	s2,sp,176
 40037d8:	00090593          	mv	a1,s2
 40037dc:	000b0513          	mv	a0,s6
 40037e0:	05112023          	sw	a7,64(sp)
 40037e4:	0dd12023          	sw	t4,192(sp)
 40037e8:	03d12223          	sw	t4,36(sp)
 40037ec:	0de12223          	sw	t5,196(sp)
 40037f0:	03e12023          	sw	t5,32(sp)
 40037f4:	0df12423          	sw	t6,200(sp)
 40037f8:	01f12e23          	sw	t6,28(sp)
 40037fc:	0dc12623          	sw	t3,204(sp)
 4003800:	01c12c23          	sw	t3,24(sp)
 4003804:	0a012823          	sw	zero,176(sp)
 4003808:	0a012a23          	sw	zero,180(sp)
 400380c:	0a012c23          	sw	zero,184(sp)
 4003810:	0a012e23          	sw	zero,188(sp)
 4003814:	1340b0ef          	jal	ra,400e948 <__eqtf2>
 4003818:	01812e03          	lw	t3,24(sp)
 400381c:	01c12f83          	lw	t6,28(sp)
 4003820:	02012f03          	lw	t5,32(sp)
 4003824:	02412e83          	lw	t4,36(sp)
 4003828:	04012883          	lw	a7,64(sp)
 400382c:	f2050ae3          	beqz	a0,4003760 <_vfprintf_r+0x2410>
 4003830:	00100793          	li	a5,1
 4003834:	419787b3          	sub	a5,a5,s9
 4003838:	0cf12e23          	sw	a5,220(sp)
 400383c:	f29ff06f          	j	4003764 <_vfprintf_r+0x2414>
 4003840:	0f410613          	addi	a2,sp,244
 4003844:	000c0593          	mv	a1,s8
 4003848:	000d0513          	mv	a0,s10
 400384c:	788070ef          	jal	ra,400afd4 <__sprint_r>
 4003850:	00050463          	beqz	a0,4003858 <_vfprintf_r+0x2508>
 4003854:	b61fe06f          	j	40023b4 <_vfprintf_r+0x1064>
 4003858:	0dc12683          	lw	a3,220(sp)
 400385c:	0fc12783          	lw	a5,252(sp)
 4003860:	11c10893          	addi	a7,sp,284
 4003864:	d69fe06f          	j	40025cc <_vfprintf_r+0x127c>
 4003868:	02d00793          	li	a5,45
 400386c:	0cf10ba3          	sb	a5,215(sp)
 4003870:	c5cff06f          	j	4002ccc <_vfprintf_r+0x197c>
 4003874:	0d714783          	lbu	a5,215(sp)
 4003878:	01b12a23          	sw	s11,20(sp)
 400387c:	02012223          	sw	zero,36(sp)
 4003880:	02012023          	sw	zero,32(sp)
 4003884:	00012c23          	sw	zero,24(sp)
 4003888:	000c8b13          	mv	s6,s9
 400388c:	000c8913          	mv	s2,s9
 4003890:	00000c93          	li	s9,0
 4003894:	00078463          	beqz	a5,400389c <_vfprintf_r+0x254c>
 4003898:	cd4fe06f          	j	4001d6c <_vfprintf_r+0xa1c>
 400389c:	ce1fd06f          	j	400157c <_vfprintf_r+0x22c>
 40038a0:	0f410613          	addi	a2,sp,244
 40038a4:	000c0593          	mv	a1,s8
 40038a8:	000d0513          	mv	a0,s10
 40038ac:	728070ef          	jal	ra,400afd4 <__sprint_r>
 40038b0:	00050463          	beqz	a0,40038b8 <_vfprintf_r+0x2568>
 40038b4:	b01fe06f          	j	40023b4 <_vfprintf_r+0x1064>
 40038b8:	0dc12483          	lw	s1,220(sp)
 40038bc:	01c12703          	lw	a4,28(sp)
 40038c0:	0fc12783          	lw	a5,252(sp)
 40038c4:	11c10893          	addi	a7,sp,284
 40038c8:	40970633          	sub	a2,a4,s1
 40038cc:	d4dfe06f          	j	4002618 <_vfprintf_r+0x12c8>
 40038d0:	01c12783          	lw	a5,28(sp)
 40038d4:	02812703          	lw	a4,40(sp)
 40038d8:	06700493          	li	s1,103
 40038dc:	00e78933          	add	s2,a5,a4
 40038e0:	01812783          	lw	a5,24(sp)
 40038e4:	40f05c63          	blez	a5,4003cfc <_vfprintf_r+0x29ac>
 40038e8:	05012783          	lw	a5,80(sp)
 40038ec:	4007f793          	andi	a5,a5,1024
 40038f0:	22079863          	bnez	a5,4003b20 <_vfprintf_r+0x27d0>
 40038f4:	fff94b13          	not	s6,s2
 40038f8:	41fb5b13          	srai	s6,s6,0x1f
 40038fc:	01697b33          	and	s6,s2,s6
 4003900:	d85ff06f          	j	4003684 <_vfprintf_r+0x2334>
 4003904:	05012783          	lw	a5,80(sp)
 4003908:	01812703          	lw	a4,24(sp)
 400390c:	0017f793          	andi	a5,a5,1
 4003910:	0197e7b3          	or	a5,a5,s9
 4003914:	40e05a63          	blez	a4,4003d28 <_vfprintf_r+0x29d8>
 4003918:	28079263          	bnez	a5,4003b9c <_vfprintf_r+0x284c>
 400391c:	01812903          	lw	s2,24(sp)
 4003920:	06600493          	li	s1,102
 4003924:	fc5ff06f          	j	40038e8 <_vfprintf_r+0x2598>
 4003928:	ff000613          	li	a2,-16
 400392c:	40d004b3          	neg	s1,a3
 4003930:	12c6de63          	bge	a3,a2,4003a6c <_vfprintf_r+0x271c>
 4003934:	00700913          	li	s2,7
 4003938:	00c0006f          	j	4003944 <_vfprintf_r+0x25f4>
 400393c:	ff048493          	addi	s1,s1,-16
 4003940:	129a5663          	bge	s4,s1,4003a6c <_vfprintf_r+0x271c>
 4003944:	01078793          	addi	a5,a5,16
 4003948:	00170713          	addi	a4,a4,1
 400394c:	0000f697          	auipc	a3,0xf
 4003950:	bd468693          	addi	a3,a3,-1068 # 4012520 <zeroes.0>
 4003954:	00d8a023          	sw	a3,0(a7)
 4003958:	0148a223          	sw	s4,4(a7)
 400395c:	0ef12e23          	sw	a5,252(sp)
 4003960:	0ee12c23          	sw	a4,248(sp)
 4003964:	00888893          	addi	a7,a7,8
 4003968:	fce95ae3          	bge	s2,a4,400393c <_vfprintf_r+0x25ec>
 400396c:	0f410613          	addi	a2,sp,244
 4003970:	000c0593          	mv	a1,s8
 4003974:	000d0513          	mv	a0,s10
 4003978:	65c070ef          	jal	ra,400afd4 <__sprint_r>
 400397c:	00050463          	beqz	a0,4003984 <_vfprintf_r+0x2634>
 4003980:	a35fe06f          	j	40023b4 <_vfprintf_r+0x1064>
 4003984:	0fc12783          	lw	a5,252(sp)
 4003988:	0f812703          	lw	a4,248(sp)
 400398c:	11c10893          	addi	a7,sp,284
 4003990:	fadff06f          	j	400393c <_vfprintf_r+0x25ec>
 4003994:	fff00793          	li	a5,-1
 4003998:	00f12623          	sw	a5,12(sp)
 400399c:	d19fd06f          	j	40016b4 <_vfprintf_r+0x364>
 40039a0:	001c8913          	addi	s2,s9,1
 40039a4:	0c010b13          	addi	s6,sp,192
 40039a8:	0ec10813          	addi	a6,sp,236
 40039ac:	0e010793          	addi	a5,sp,224
 40039b0:	0dc10713          	addi	a4,sp,220
 40039b4:	00090693          	mv	a3,s2
 40039b8:	00200613          	li	a2,2
 40039bc:	000b0593          	mv	a1,s6
 40039c0:	000d0513          	mv	a0,s10
 40039c4:	0dd12023          	sw	t4,192(sp)
 40039c8:	03d12223          	sw	t4,36(sp)
 40039cc:	0de12223          	sw	t5,196(sp)
 40039d0:	03e12023          	sw	t5,32(sp)
 40039d4:	0df12423          	sw	t6,200(sp)
 40039d8:	01f12e23          	sw	t6,28(sp)
 40039dc:	0dc12623          	sw	t3,204(sp)
 40039e0:	01c12c23          	sw	t3,24(sp)
 40039e4:	05d020ef          	jal	ra,4006240 <_ldtoa_r>
 40039e8:	01812e03          	lw	t3,24(sp)
 40039ec:	01c12f83          	lw	t6,28(sp)
 40039f0:	02012f03          	lw	t5,32(sp)
 40039f4:	02412e83          	lw	t4,36(sp)
 40039f8:	04012883          	lw	a7,64(sp)
 40039fc:	00050b93          	mv	s7,a0
 4003a00:	012b8db3          	add	s11,s7,s2
 4003a04:	0b010913          	addi	s2,sp,176
 4003a08:	d65ff06f          	j	400376c <_vfprintf_r+0x241c>
 4003a0c:	05412783          	lw	a5,84(sp)
 4003a10:	000d8713          	mv	a4,s11
 4003a14:	0ef12623          	sw	a5,236(sp)
 4003a18:	02412783          	lw	a5,36(sp)
 4003a1c:	fffdc683          	lbu	a3,-1(s11)
 4003a20:	00f7c603          	lbu	a2,15(a5)
 4003a24:	02c69063          	bne	a3,a2,4003a44 <_vfprintf_r+0x26f4>
 4003a28:	03000593          	li	a1,48
 4003a2c:	feb70fa3          	sb	a1,-1(a4)
 4003a30:	0ec12703          	lw	a4,236(sp)
 4003a34:	fff70793          	addi	a5,a4,-1
 4003a38:	0ef12623          	sw	a5,236(sp)
 4003a3c:	fff74683          	lbu	a3,-1(a4)
 4003a40:	fed606e3          	beq	a2,a3,4003a2c <_vfprintf_r+0x26dc>
 4003a44:	00168613          	addi	a2,a3,1
 4003a48:	03900593          	li	a1,57
 4003a4c:	0ff67613          	zext.b	a2,a2
 4003a50:	00b68663          	beq	a3,a1,4003a5c <_vfprintf_r+0x270c>
 4003a54:	fec70fa3          	sb	a2,-1(a4)
 4003a58:	b85ff06f          	j	40035dc <_vfprintf_r+0x228c>
 4003a5c:	02412783          	lw	a5,36(sp)
 4003a60:	00a7c603          	lbu	a2,10(a5)
 4003a64:	fec70fa3          	sb	a2,-1(a4)
 4003a68:	b75ff06f          	j	40035dc <_vfprintf_r+0x228c>
 4003a6c:	0000f697          	auipc	a3,0xf
 4003a70:	ab468693          	addi	a3,a3,-1356 # 4012520 <zeroes.0>
 4003a74:	009787b3          	add	a5,a5,s1
 4003a78:	00170713          	addi	a4,a4,1
 4003a7c:	00d8a023          	sw	a3,0(a7)
 4003a80:	0098a223          	sw	s1,4(a7)
 4003a84:	0ef12e23          	sw	a5,252(sp)
 4003a88:	0ee12c23          	sw	a4,248(sp)
 4003a8c:	00700693          	li	a3,7
 4003a90:	96e6da63          	bge	a3,a4,4002c04 <_vfprintf_r+0x18b4>
 4003a94:	0f410613          	addi	a2,sp,244
 4003a98:	000c0593          	mv	a1,s8
 4003a9c:	000d0513          	mv	a0,s10
 4003aa0:	534070ef          	jal	ra,400afd4 <__sprint_r>
 4003aa4:	00050463          	beqz	a0,4003aac <_vfprintf_r+0x275c>
 4003aa8:	90dfe06f          	j	40023b4 <_vfprintf_r+0x1064>
 4003aac:	0fc12783          	lw	a5,252(sp)
 4003ab0:	0f812703          	lw	a4,248(sp)
 4003ab4:	11c10893          	addi	a7,sp,284
 4003ab8:	a90ff06f          	j	4002d48 <_vfprintf_r+0x19f8>
 4003abc:	03000793          	li	a5,48
 4003ac0:	0cf10c23          	sb	a5,216(sp)
 4003ac4:	07800793          	li	a5,120
 4003ac8:	f20ff06f          	j	40031e8 <_vfprintf_r+0x1e98>
 4003acc:	000a8b13          	mv	s6,s5
 4003ad0:	c98fe06f          	j	4001f68 <_vfprintf_r+0xc18>
 4003ad4:	001c8593          	addi	a1,s9,1
 4003ad8:	000d0513          	mv	a0,s10
 4003adc:	01112823          	sw	a7,16(sp)
 4003ae0:	401030ef          	jal	ra,40076e0 <_malloc_r>
 4003ae4:	01012883          	lw	a7,16(sp)
 4003ae8:	00050b93          	mv	s7,a0
 4003aec:	2a050263          	beqz	a0,4003d90 <_vfprintf_r+0x2a40>
 4003af0:	00a12823          	sw	a0,16(sp)
 4003af4:	f10ff06f          	j	4003204 <_vfprintf_r+0x1eb4>
 4003af8:	019b8db3          	add	s11,s7,s9
 4003afc:	0b010913          	addi	s2,sp,176
 4003b00:	c6dff06f          	j	400376c <_vfprintf_r+0x241c>
 4003b04:	00600c93          	li	s9,6
 4003b08:	d71fd06f          	j	4001878 <_vfprintf_r+0x528>
 4003b0c:	000c8463          	beqz	s9,4003b14 <_vfprintf_r+0x27c4>
 4003b10:	d69fd06f          	j	4001878 <_vfprintf_r+0x528>
 4003b14:	00100c93          	li	s9,1
 4003b18:	d61fd06f          	j	4001878 <_vfprintf_r+0x528>
 4003b1c:	06700493          	li	s1,103
 4003b20:	03812603          	lw	a2,56(sp)
 4003b24:	0ff00713          	li	a4,255
 4003b28:	00064783          	lbu	a5,0(a2)
 4003b2c:	28e78063          	beq	a5,a4,4003dac <_vfprintf_r+0x2a5c>
 4003b30:	01812683          	lw	a3,24(sp)
 4003b34:	00000513          	li	a0,0
 4003b38:	00000593          	li	a1,0
 4003b3c:	00d7de63          	bge	a5,a3,4003b58 <_vfprintf_r+0x2808>
 4003b40:	40f686b3          	sub	a3,a3,a5
 4003b44:	00164783          	lbu	a5,1(a2)
 4003b48:	04078463          	beqz	a5,4003b90 <_vfprintf_r+0x2840>
 4003b4c:	00158593          	addi	a1,a1,1
 4003b50:	00160613          	addi	a2,a2,1
 4003b54:	fee794e3          	bne	a5,a4,4003b3c <_vfprintf_r+0x27ec>
 4003b58:	00d12c23          	sw	a3,24(sp)
 4003b5c:	02c12c23          	sw	a2,56(sp)
 4003b60:	02b12023          	sw	a1,32(sp)
 4003b64:	02a12223          	sw	a0,36(sp)
 4003b68:	02412703          	lw	a4,36(sp)
 4003b6c:	02012783          	lw	a5,32(sp)
 4003b70:	00e787b3          	add	a5,a5,a4
 4003b74:	04412703          	lw	a4,68(sp)
 4003b78:	02e787b3          	mul	a5,a5,a4
 4003b7c:	01278933          	add	s2,a5,s2
 4003b80:	fff94b13          	not	s6,s2
 4003b84:	41fb5b13          	srai	s6,s6,0x1f
 4003b88:	01697b33          	and	s6,s2,s6
 4003b8c:	f05fd06f          	j	4001a90 <_vfprintf_r+0x740>
 4003b90:	00064783          	lbu	a5,0(a2)
 4003b94:	00150513          	addi	a0,a0,1
 4003b98:	fbdff06f          	j	4003b54 <_vfprintf_r+0x2804>
 4003b9c:	02812783          	lw	a5,40(sp)
 4003ba0:	06600493          	li	s1,102
 4003ba4:	00f707b3          	add	a5,a4,a5
 4003ba8:	01978933          	add	s2,a5,s9
 4003bac:	d3dff06f          	j	40038e8 <_vfprintf_r+0x2598>
 4003bb0:	0e610713          	addi	a4,sp,230
 4003bb4:	00069863          	bnez	a3,4003bc4 <_vfprintf_r+0x2874>
 4003bb8:	03000713          	li	a4,48
 4003bbc:	0ee10323          	sb	a4,230(sp)
 4003bc0:	0e710713          	addi	a4,sp,231
 4003bc4:	1c010693          	addi	a3,sp,448
 4003bc8:	03078793          	addi	a5,a5,48
 4003bcc:	40d706b3          	sub	a3,a4,a3
 4003bd0:	00f70023          	sb	a5,0(a4)
 4003bd4:	0dd68793          	addi	a5,a3,221
 4003bd8:	02f12a23          	sw	a5,52(sp)
 4003bdc:	e71fd06f          	j	4001a4c <_vfprintf_r+0x6fc>
 4003be0:	0c010b13          	addi	s6,sp,192
 4003be4:	000b0513          	mv	a0,s6
 4003be8:	05112a23          	sw	a7,84(sp)
 4003bec:	0de12223          	sw	t5,196(sp)
 4003bf0:	0df12423          	sw	t6,200(sp)
 4003bf4:	0dd12023          	sw	t4,192(sp)
 4003bf8:	0dc12623          	sw	t3,204(sp)
 4003bfc:	41d0d0ef          	jal	ra,4011818 <__trunctfdf2>
 4003c00:	0dc10613          	addi	a2,sp,220
 4003c04:	504040ef          	jal	ra,4008108 <frexp>
 4003c08:	00058613          	mv	a2,a1
 4003c0c:	00050593          	mv	a1,a0
 4003c10:	000b0513          	mv	a0,s6
 4003c14:	1d10d0ef          	jal	ra,40115e4 <__extenddftf2>
 4003c18:	0c012e83          	lw	t4,192(sp)
 4003c1c:	0000f797          	auipc	a5,0xf
 4003c20:	8e478793          	addi	a5,a5,-1820 # 4012500 <__clz_tab+0x2d0>
 4003c24:	0007ae03          	lw	t3,0(a5)
 4003c28:	0bd12023          	sw	t4,160(sp)
 4003c2c:	0c412e83          	lw	t4,196(sp)
 4003c30:	0047a683          	lw	a3,4(a5)
 4003c34:	0087a703          	lw	a4,8(a5)
 4003c38:	0bd12223          	sw	t4,164(sp)
 4003c3c:	0c812e83          	lw	t4,200(sp)
 4003c40:	00c7a783          	lw	a5,12(a5)
 4003c44:	0a010613          	addi	a2,sp,160
 4003c48:	0bd12423          	sw	t4,168(sp)
 4003c4c:	0cc12e83          	lw	t4,204(sp)
 4003c50:	0b010913          	addi	s2,sp,176
 4003c54:	00060593          	mv	a1,a2
 4003c58:	00c12c23          	sw	a2,24(sp)
 4003c5c:	00090513          	mv	a0,s2
 4003c60:	09010613          	addi	a2,sp,144
 4003c64:	04c12023          	sw	a2,64(sp)
 4003c68:	0bd12623          	sw	t4,172(sp)
 4003c6c:	09c12823          	sw	t3,144(sp)
 4003c70:	08d12a23          	sw	a3,148(sp)
 4003c74:	08e12c23          	sw	a4,152(sp)
 4003c78:	08f12e23          	sw	a5,156(sp)
 4003c7c:	0700b0ef          	jal	ra,400ecec <__multf3>
 4003c80:	0b012683          	lw	a3,176(sp)
 4003c84:	0b412e03          	lw	t3,180(sp)
 4003c88:	0b812e83          	lw	t4,184(sp)
 4003c8c:	0bc12f03          	lw	t5,188(sp)
 4003c90:	00090593          	mv	a1,s2
 4003c94:	000b0513          	mv	a0,s6
 4003c98:	0cd12023          	sw	a3,192(sp)
 4003c9c:	04d12623          	sw	a3,76(sp)
 4003ca0:	0dc12223          	sw	t3,196(sp)
 4003ca4:	03c12223          	sw	t3,36(sp)
 4003ca8:	0dd12423          	sw	t4,200(sp)
 4003cac:	03d12023          	sw	t4,32(sp)
 4003cb0:	0de12623          	sw	t5,204(sp)
 4003cb4:	01e12e23          	sw	t5,28(sp)
 4003cb8:	0a012823          	sw	zero,176(sp)
 4003cbc:	0a012a23          	sw	zero,180(sp)
 4003cc0:	0a012c23          	sw	zero,184(sp)
 4003cc4:	0a012e23          	sw	zero,188(sp)
 4003cc8:	4810a0ef          	jal	ra,400e948 <__eqtf2>
 4003ccc:	01c12f03          	lw	t5,28(sp)
 4003cd0:	02012e83          	lw	t4,32(sp)
 4003cd4:	02412e03          	lw	t3,36(sp)
 4003cd8:	04c12683          	lw	a3,76(sp)
 4003cdc:	05412883          	lw	a7,84(sp)
 4003ce0:	00051663          	bnez	a0,4003cec <_vfprintf_r+0x299c>
 4003ce4:	00100793          	li	a5,1
 4003ce8:	0cf12e23          	sw	a5,220(sp)
 4003cec:	0000e797          	auipc	a5,0xe
 4003cf0:	65478793          	addi	a5,a5,1620 # 4012340 <__clz_tab+0x110>
 4003cf4:	02f12223          	sw	a5,36(sp)
 4003cf8:	e5cff06f          	j	4003354 <_vfprintf_r+0x2004>
 4003cfc:	40f90cb3          	sub	s9,s2,a5
 4003d00:	001c8913          	addi	s2,s9,1
 4003d04:	fff94b13          	not	s6,s2
 4003d08:	41fb5b13          	srai	s6,s6,0x1f
 4003d0c:	01697b33          	and	s6,s2,s6
 4003d10:	975ff06f          	j	4003684 <_vfprintf_r+0x2334>
 4003d14:	05012783          	lw	a5,80(sp)
 4003d18:	0017f793          	andi	a5,a5,1
 4003d1c:	00079463          	bnez	a5,4003d24 <_vfprintf_r+0x29d4>
 4003d20:	d4dfd06f          	j	4001a6c <_vfprintf_r+0x71c>
 4003d24:	d41fd06f          	j	4001a64 <_vfprintf_r+0x714>
 4003d28:	00079a63          	bnez	a5,4003d3c <_vfprintf_r+0x29ec>
 4003d2c:	00100b13          	li	s6,1
 4003d30:	06600493          	li	s1,102
 4003d34:	00100913          	li	s2,1
 4003d38:	94dff06f          	j	4003684 <_vfprintf_r+0x2334>
 4003d3c:	02812783          	lw	a5,40(sp)
 4003d40:	06600493          	li	s1,102
 4003d44:	00178793          	addi	a5,a5,1
 4003d48:	01978933          	add	s2,a5,s9
 4003d4c:	fff94b13          	not	s6,s2
 4003d50:	41fb5b13          	srai	s6,s6,0x1f
 4003d54:	01697b33          	and	s6,s2,s6
 4003d58:	92dff06f          	j	4003684 <_vfprintf_r+0x2334>
 4003d5c:	00088693          	mv	a3,a7
 4003d60:	b5dfe06f          	j	40028bc <_vfprintf_r+0x156c>
 4003d64:	01412783          	lw	a5,20(sp)
 4003d68:	0007ac83          	lw	s9,0(a5)
 4003d6c:	00478793          	addi	a5,a5,4
 4003d70:	000cd463          	bgez	s9,4003d78 <_vfprintf_r+0x2a28>
 4003d74:	fff00c93          	li	s9,-1
 4003d78:	00144483          	lbu	s1,1(s0)
 4003d7c:	00f12a23          	sw	a5,20(sp)
 4003d80:	00068413          	mv	s0,a3
 4003d84:	f6cfd06f          	j	40014f0 <_vfprintf_r+0x1a0>
 4003d88:	000c8913          	mv	s2,s9
 4003d8c:	c75ff06f          	j	4003a00 <_vfprintf_r+0x26b0>
 4003d90:	00cc5783          	lhu	a5,12(s8)
 4003d94:	0407e793          	ori	a5,a5,64
 4003d98:	00fc1623          	sh	a5,12(s8)
 4003d9c:	909fd06f          	j	40016a4 <_vfprintf_r+0x354>
 4003da0:	00200793          	li	a5,2
 4003da4:	02f12a23          	sw	a5,52(sp)
 4003da8:	ca5fd06f          	j	4001a4c <_vfprintf_r+0x6fc>
 4003dac:	02012223          	sw	zero,36(sp)
 4003db0:	02012023          	sw	zero,32(sp)
 4003db4:	db5ff06f          	j	4003b68 <_vfprintf_r+0x2818>

04003db8 <__sbprintf>:
 4003db8:	00c5d783          	lhu	a5,12(a1)
 4003dbc:	0645ae03          	lw	t3,100(a1)
 4003dc0:	00e5d303          	lhu	t1,14(a1)
 4003dc4:	01c5a883          	lw	a7,28(a1)
 4003dc8:	0245a803          	lw	a6,36(a1)
 4003dcc:	b8010113          	addi	sp,sp,-1152
 4003dd0:	ffd7f793          	andi	a5,a5,-3
 4003dd4:	40000713          	li	a4,1024
 4003dd8:	46812c23          	sw	s0,1144(sp)
 4003ddc:	00f11a23          	sh	a5,20(sp)
 4003de0:	00058413          	mv	s0,a1
 4003de4:	07010793          	addi	a5,sp,112
 4003de8:	00810593          	addi	a1,sp,8
 4003dec:	46912a23          	sw	s1,1140(sp)
 4003df0:	47212823          	sw	s2,1136(sp)
 4003df4:	46112e23          	sw	ra,1148(sp)
 4003df8:	00050913          	mv	s2,a0
 4003dfc:	07c12623          	sw	t3,108(sp)
 4003e00:	00611b23          	sh	t1,22(sp)
 4003e04:	03112223          	sw	a7,36(sp)
 4003e08:	03012623          	sw	a6,44(sp)
 4003e0c:	00f12423          	sw	a5,8(sp)
 4003e10:	00f12c23          	sw	a5,24(sp)
 4003e14:	00e12823          	sw	a4,16(sp)
 4003e18:	00e12e23          	sw	a4,28(sp)
 4003e1c:	02012023          	sw	zero,32(sp)
 4003e20:	d30fd0ef          	jal	ra,4001350 <_vfprintf_r>
 4003e24:	00050493          	mv	s1,a0
 4003e28:	02055c63          	bgez	a0,4003e60 <__sbprintf+0xa8>
 4003e2c:	01415783          	lhu	a5,20(sp)
 4003e30:	0407f793          	andi	a5,a5,64
 4003e34:	00078863          	beqz	a5,4003e44 <__sbprintf+0x8c>
 4003e38:	00c45783          	lhu	a5,12(s0)
 4003e3c:	0407e793          	ori	a5,a5,64
 4003e40:	00f41623          	sh	a5,12(s0)
 4003e44:	47c12083          	lw	ra,1148(sp)
 4003e48:	47812403          	lw	s0,1144(sp)
 4003e4c:	47012903          	lw	s2,1136(sp)
 4003e50:	00048513          	mv	a0,s1
 4003e54:	47412483          	lw	s1,1140(sp)
 4003e58:	48010113          	addi	sp,sp,1152
 4003e5c:	00008067          	ret
 4003e60:	00810593          	addi	a1,sp,8
 4003e64:	00090513          	mv	a0,s2
 4003e68:	3e0000ef          	jal	ra,4004248 <_fflush_r>
 4003e6c:	fc0500e3          	beqz	a0,4003e2c <__sbprintf+0x74>
 4003e70:	fff00493          	li	s1,-1
 4003e74:	fb9ff06f          	j	4003e2c <__sbprintf+0x74>

04003e78 <__swsetup_r>:
 4003e78:	ff010113          	addi	sp,sp,-16
 4003e7c:	00812423          	sw	s0,8(sp)
 4003e80:	00912223          	sw	s1,4(sp)
 4003e84:	00112623          	sw	ra,12(sp)
 4003e88:	00010797          	auipc	a5,0x10
 4003e8c:	8c47a783          	lw	a5,-1852(a5) # 401374c <_impure_ptr>
 4003e90:	00050493          	mv	s1,a0
 4003e94:	00058413          	mv	s0,a1
 4003e98:	00078663          	beqz	a5,4003ea4 <__swsetup_r+0x2c>
 4003e9c:	0387a703          	lw	a4,56(a5)
 4003ea0:	08070463          	beqz	a4,4003f28 <__swsetup_r+0xb0>
 4003ea4:	00c41703          	lh	a4,12(s0)
 4003ea8:	01071793          	slli	a5,a4,0x10
 4003eac:	00877693          	andi	a3,a4,8
 4003eb0:	0107d793          	srli	a5,a5,0x10
 4003eb4:	08068863          	beqz	a3,4003f44 <__swsetup_r+0xcc>
 4003eb8:	01042683          	lw	a3,16(s0)
 4003ebc:	0a068863          	beqz	a3,4003f6c <__swsetup_r+0xf4>
 4003ec0:	0017f613          	andi	a2,a5,1
 4003ec4:	02060863          	beqz	a2,4003ef4 <__swsetup_r+0x7c>
 4003ec8:	01442603          	lw	a2,20(s0)
 4003ecc:	00042423          	sw	zero,8(s0)
 4003ed0:	00000513          	li	a0,0
 4003ed4:	40c00633          	neg	a2,a2
 4003ed8:	00c42c23          	sw	a2,24(s0)
 4003edc:	02068a63          	beqz	a3,4003f10 <__swsetup_r+0x98>
 4003ee0:	00c12083          	lw	ra,12(sp)
 4003ee4:	00812403          	lw	s0,8(sp)
 4003ee8:	00412483          	lw	s1,4(sp)
 4003eec:	01010113          	addi	sp,sp,16
 4003ef0:	00008067          	ret
 4003ef4:	0027f613          	andi	a2,a5,2
 4003ef8:	00000593          	li	a1,0
 4003efc:	00061463          	bnez	a2,4003f04 <__swsetup_r+0x8c>
 4003f00:	01442583          	lw	a1,20(s0)
 4003f04:	00b42423          	sw	a1,8(s0)
 4003f08:	00000513          	li	a0,0
 4003f0c:	fc069ae3          	bnez	a3,4003ee0 <__swsetup_r+0x68>
 4003f10:	0807f793          	andi	a5,a5,128
 4003f14:	fc0786e3          	beqz	a5,4003ee0 <__swsetup_r+0x68>
 4003f18:	04076713          	ori	a4,a4,64
 4003f1c:	00e41623          	sh	a4,12(s0)
 4003f20:	fff00513          	li	a0,-1
 4003f24:	fbdff06f          	j	4003ee0 <__swsetup_r+0x68>
 4003f28:	00078513          	mv	a0,a5
 4003f2c:	50c000ef          	jal	ra,4004438 <__sinit>
 4003f30:	00c41703          	lh	a4,12(s0)
 4003f34:	01071793          	slli	a5,a4,0x10
 4003f38:	00877693          	andi	a3,a4,8
 4003f3c:	0107d793          	srli	a5,a5,0x10
 4003f40:	f6069ce3          	bnez	a3,4003eb8 <__swsetup_r+0x40>
 4003f44:	0107f693          	andi	a3,a5,16
 4003f48:	08068263          	beqz	a3,4003fcc <__swsetup_r+0x154>
 4003f4c:	0047f793          	andi	a5,a5,4
 4003f50:	04079463          	bnez	a5,4003f98 <__swsetup_r+0x120>
 4003f54:	01042683          	lw	a3,16(s0)
 4003f58:	00876713          	ori	a4,a4,8
 4003f5c:	01071793          	slli	a5,a4,0x10
 4003f60:	00e41623          	sh	a4,12(s0)
 4003f64:	0107d793          	srli	a5,a5,0x10
 4003f68:	f4069ce3          	bnez	a3,4003ec0 <__swsetup_r+0x48>
 4003f6c:	2807f613          	andi	a2,a5,640
 4003f70:	20000593          	li	a1,512
 4003f74:	f4b606e3          	beq	a2,a1,4003ec0 <__swsetup_r+0x48>
 4003f78:	00040593          	mv	a1,s0
 4003f7c:	00048513          	mv	a0,s1
 4003f80:	5d0030ef          	jal	ra,4007550 <__smakebuf_r>
 4003f84:	00c41703          	lh	a4,12(s0)
 4003f88:	01042683          	lw	a3,16(s0)
 4003f8c:	01071793          	slli	a5,a4,0x10
 4003f90:	0107d793          	srli	a5,a5,0x10
 4003f94:	f2dff06f          	j	4003ec0 <__swsetup_r+0x48>
 4003f98:	03042583          	lw	a1,48(s0)
 4003f9c:	00058e63          	beqz	a1,4003fb8 <__swsetup_r+0x140>
 4003fa0:	04040793          	addi	a5,s0,64
 4003fa4:	00f58863          	beq	a1,a5,4003fb4 <__swsetup_r+0x13c>
 4003fa8:	00048513          	mv	a0,s1
 4003fac:	5e4000ef          	jal	ra,4004590 <_free_r>
 4003fb0:	00c41703          	lh	a4,12(s0)
 4003fb4:	02042823          	sw	zero,48(s0)
 4003fb8:	01042683          	lw	a3,16(s0)
 4003fbc:	fdb77713          	andi	a4,a4,-37
 4003fc0:	00042223          	sw	zero,4(s0)
 4003fc4:	00d42023          	sw	a3,0(s0)
 4003fc8:	f91ff06f          	j	4003f58 <__swsetup_r+0xe0>
 4003fcc:	00900793          	li	a5,9
 4003fd0:	00f4a023          	sw	a5,0(s1)
 4003fd4:	04076713          	ori	a4,a4,64
 4003fd8:	00e41623          	sh	a4,12(s0)
 4003fdc:	fff00513          	li	a0,-1
 4003fe0:	f01ff06f          	j	4003ee0 <__swsetup_r+0x68>

04003fe4 <__sflush_r>:
 4003fe4:	00c59783          	lh	a5,12(a1)
 4003fe8:	fe010113          	addi	sp,sp,-32
 4003fec:	00812c23          	sw	s0,24(sp)
 4003ff0:	01312623          	sw	s3,12(sp)
 4003ff4:	00112e23          	sw	ra,28(sp)
 4003ff8:	00912a23          	sw	s1,20(sp)
 4003ffc:	01212823          	sw	s2,16(sp)
 4004000:	0087f693          	andi	a3,a5,8
 4004004:	00058413          	mv	s0,a1
 4004008:	00050993          	mv	s3,a0
 400400c:	10069c63          	bnez	a3,4004124 <__sflush_r+0x140>
 4004010:	00001737          	lui	a4,0x1
 4004014:	80070713          	addi	a4,a4,-2048 # 800 <_boot-0x3fff800>
 4004018:	0045a683          	lw	a3,4(a1)
 400401c:	00e7e7b3          	or	a5,a5,a4
 4004020:	00f59623          	sh	a5,12(a1)
 4004024:	18d05663          	blez	a3,40041b0 <__sflush_r+0x1cc>
 4004028:	02842703          	lw	a4,40(s0)
 400402c:	0c070c63          	beqz	a4,4004104 <__sflush_r+0x120>
 4004030:	01079793          	slli	a5,a5,0x10
 4004034:	0107d793          	srli	a5,a5,0x10
 4004038:	000016b7          	lui	a3,0x1
 400403c:	0009a483          	lw	s1,0(s3)
 4004040:	00d7f6b3          	and	a3,a5,a3
 4004044:	0009a023          	sw	zero,0(s3)
 4004048:	01c42583          	lw	a1,28(s0)
 400404c:	16069863          	bnez	a3,40041bc <__sflush_r+0x1d8>
 4004050:	00100693          	li	a3,1
 4004054:	00000613          	li	a2,0
 4004058:	00098513          	mv	a0,s3
 400405c:	000700e7          	jalr	a4
 4004060:	fff00793          	li	a5,-1
 4004064:	18f50e63          	beq	a0,a5,4004200 <__sflush_r+0x21c>
 4004068:	00c45783          	lhu	a5,12(s0)
 400406c:	02842703          	lw	a4,40(s0)
 4004070:	01c42583          	lw	a1,28(s0)
 4004074:	0047f793          	andi	a5,a5,4
 4004078:	00078e63          	beqz	a5,4004094 <__sflush_r+0xb0>
 400407c:	00442683          	lw	a3,4(s0)
 4004080:	03042783          	lw	a5,48(s0)
 4004084:	40d50533          	sub	a0,a0,a3
 4004088:	00078663          	beqz	a5,4004094 <__sflush_r+0xb0>
 400408c:	03c42783          	lw	a5,60(s0)
 4004090:	40f50533          	sub	a0,a0,a5
 4004094:	00050613          	mv	a2,a0
 4004098:	00000693          	li	a3,0
 400409c:	00098513          	mv	a0,s3
 40040a0:	000700e7          	jalr	a4
 40040a4:	fff00793          	li	a5,-1
 40040a8:	10f51e63          	bne	a0,a5,40041c4 <__sflush_r+0x1e0>
 40040ac:	0009a703          	lw	a4,0(s3)
 40040b0:	00c41783          	lh	a5,12(s0)
 40040b4:	16070a63          	beqz	a4,4004228 <__sflush_r+0x244>
 40040b8:	01d00693          	li	a3,29
 40040bc:	00d70663          	beq	a4,a3,40040c8 <__sflush_r+0xe4>
 40040c0:	01600693          	li	a3,22
 40040c4:	0cd71463          	bne	a4,a3,400418c <__sflush_r+0x1a8>
 40040c8:	01042683          	lw	a3,16(s0)
 40040cc:	fffff737          	lui	a4,0xfffff
 40040d0:	7ff70713          	addi	a4,a4,2047 # fffff7ff <__stack+0xf9fff7ff>
 40040d4:	00e7f7b3          	and	a5,a5,a4
 40040d8:	00f41623          	sh	a5,12(s0)
 40040dc:	00042223          	sw	zero,4(s0)
 40040e0:	00d42023          	sw	a3,0(s0)
 40040e4:	03042583          	lw	a1,48(s0)
 40040e8:	0099a023          	sw	s1,0(s3)
 40040ec:	00058c63          	beqz	a1,4004104 <__sflush_r+0x120>
 40040f0:	04040793          	addi	a5,s0,64
 40040f4:	00f58663          	beq	a1,a5,4004100 <__sflush_r+0x11c>
 40040f8:	00098513          	mv	a0,s3
 40040fc:	494000ef          	jal	ra,4004590 <_free_r>
 4004100:	02042823          	sw	zero,48(s0)
 4004104:	00000513          	li	a0,0
 4004108:	01c12083          	lw	ra,28(sp)
 400410c:	01812403          	lw	s0,24(sp)
 4004110:	01412483          	lw	s1,20(sp)
 4004114:	01012903          	lw	s2,16(sp)
 4004118:	00c12983          	lw	s3,12(sp)
 400411c:	02010113          	addi	sp,sp,32
 4004120:	00008067          	ret
 4004124:	0105a903          	lw	s2,16(a1)
 4004128:	fc090ee3          	beqz	s2,4004104 <__sflush_r+0x120>
 400412c:	0005a483          	lw	s1,0(a1)
 4004130:	01079713          	slli	a4,a5,0x10
 4004134:	01075713          	srli	a4,a4,0x10
 4004138:	00377713          	andi	a4,a4,3
 400413c:	0125a023          	sw	s2,0(a1)
 4004140:	412484b3          	sub	s1,s1,s2
 4004144:	00000793          	li	a5,0
 4004148:	00071463          	bnez	a4,4004150 <__sflush_r+0x16c>
 400414c:	0145a783          	lw	a5,20(a1)
 4004150:	00f42423          	sw	a5,8(s0)
 4004154:	00904863          	bgtz	s1,4004164 <__sflush_r+0x180>
 4004158:	fadff06f          	j	4004104 <__sflush_r+0x120>
 400415c:	00a90933          	add	s2,s2,a0
 4004160:	fa9052e3          	blez	s1,4004104 <__sflush_r+0x120>
 4004164:	02442783          	lw	a5,36(s0)
 4004168:	01c42583          	lw	a1,28(s0)
 400416c:	00048693          	mv	a3,s1
 4004170:	00090613          	mv	a2,s2
 4004174:	00098513          	mv	a0,s3
 4004178:	000780e7          	jalr	a5
 400417c:	40a484b3          	sub	s1,s1,a0
 4004180:	fca04ee3          	bgtz	a0,400415c <__sflush_r+0x178>
 4004184:	00c45783          	lhu	a5,12(s0)
 4004188:	fff00513          	li	a0,-1
 400418c:	0407e793          	ori	a5,a5,64
 4004190:	01c12083          	lw	ra,28(sp)
 4004194:	00f41623          	sh	a5,12(s0)
 4004198:	01812403          	lw	s0,24(sp)
 400419c:	01412483          	lw	s1,20(sp)
 40041a0:	01012903          	lw	s2,16(sp)
 40041a4:	00c12983          	lw	s3,12(sp)
 40041a8:	02010113          	addi	sp,sp,32
 40041ac:	00008067          	ret
 40041b0:	03c5a703          	lw	a4,60(a1)
 40041b4:	e6e04ae3          	bgtz	a4,4004028 <__sflush_r+0x44>
 40041b8:	f4dff06f          	j	4004104 <__sflush_r+0x120>
 40041bc:	05042503          	lw	a0,80(s0)
 40041c0:	eb5ff06f          	j	4004074 <__sflush_r+0x90>
 40041c4:	00c45783          	lhu	a5,12(s0)
 40041c8:	fffff737          	lui	a4,0xfffff
 40041cc:	7ff70713          	addi	a4,a4,2047 # fffff7ff <__stack+0xf9fff7ff>
 40041d0:	00e7f7b3          	and	a5,a5,a4
 40041d4:	01042683          	lw	a3,16(s0)
 40041d8:	01079793          	slli	a5,a5,0x10
 40041dc:	4107d793          	srai	a5,a5,0x10
 40041e0:	00c7d713          	srli	a4,a5,0xc
 40041e4:	00f41623          	sh	a5,12(s0)
 40041e8:	00042223          	sw	zero,4(s0)
 40041ec:	00d42023          	sw	a3,0(s0)
 40041f0:	00177793          	andi	a5,a4,1
 40041f4:	ee0788e3          	beqz	a5,40040e4 <__sflush_r+0x100>
 40041f8:	04a42823          	sw	a0,80(s0)
 40041fc:	ee9ff06f          	j	40040e4 <__sflush_r+0x100>
 4004200:	0009a783          	lw	a5,0(s3)
 4004204:	e60782e3          	beqz	a5,4004068 <__sflush_r+0x84>
 4004208:	01d00713          	li	a4,29
 400420c:	02e78863          	beq	a5,a4,400423c <__sflush_r+0x258>
 4004210:	01600713          	li	a4,22
 4004214:	02e78463          	beq	a5,a4,400423c <__sflush_r+0x258>
 4004218:	00c45783          	lhu	a5,12(s0)
 400421c:	0407e793          	ori	a5,a5,64
 4004220:	00f41623          	sh	a5,12(s0)
 4004224:	ee5ff06f          	j	4004108 <__sflush_r+0x124>
 4004228:	fffff737          	lui	a4,0xfffff
 400422c:	7ff70713          	addi	a4,a4,2047 # fffff7ff <__stack+0xf9fff7ff>
 4004230:	01042683          	lw	a3,16(s0)
 4004234:	00e7f7b3          	and	a5,a5,a4
 4004238:	fa9ff06f          	j	40041e0 <__sflush_r+0x1fc>
 400423c:	0099a023          	sw	s1,0(s3)
 4004240:	00000513          	li	a0,0
 4004244:	ec5ff06f          	j	4004108 <__sflush_r+0x124>

04004248 <_fflush_r>:
 4004248:	fe010113          	addi	sp,sp,-32
 400424c:	00812c23          	sw	s0,24(sp)
 4004250:	00112e23          	sw	ra,28(sp)
 4004254:	00050413          	mv	s0,a0
 4004258:	00050663          	beqz	a0,4004264 <_fflush_r+0x1c>
 400425c:	03852783          	lw	a5,56(a0)
 4004260:	02078063          	beqz	a5,4004280 <_fflush_r+0x38>
 4004264:	00c59783          	lh	a5,12(a1)
 4004268:	02079663          	bnez	a5,4004294 <_fflush_r+0x4c>
 400426c:	01c12083          	lw	ra,28(sp)
 4004270:	01812403          	lw	s0,24(sp)
 4004274:	00000513          	li	a0,0
 4004278:	02010113          	addi	sp,sp,32
 400427c:	00008067          	ret
 4004280:	00b12623          	sw	a1,12(sp)
 4004284:	1b4000ef          	jal	ra,4004438 <__sinit>
 4004288:	00c12583          	lw	a1,12(sp)
 400428c:	00c59783          	lh	a5,12(a1)
 4004290:	fc078ee3          	beqz	a5,400426c <_fflush_r+0x24>
 4004294:	00040513          	mv	a0,s0
 4004298:	01812403          	lw	s0,24(sp)
 400429c:	01c12083          	lw	ra,28(sp)
 40042a0:	02010113          	addi	sp,sp,32
 40042a4:	d41ff06f          	j	4003fe4 <__sflush_r>

040042a8 <_cleanup_r>:
 40042a8:	00008597          	auipc	a1,0x8
 40042ac:	39858593          	addi	a1,a1,920 # 400c640 <_fclose_r>
 40042b0:	5f40006f          	j	40048a4 <_fwalk_reent>

040042b4 <__sinit.part.0>:
 40042b4:	fe010113          	addi	sp,sp,-32
 40042b8:	00112e23          	sw	ra,28(sp)
 40042bc:	00812c23          	sw	s0,24(sp)
 40042c0:	00912a23          	sw	s1,20(sp)
 40042c4:	01212823          	sw	s2,16(sp)
 40042c8:	01312623          	sw	s3,12(sp)
 40042cc:	01412423          	sw	s4,8(sp)
 40042d0:	01512223          	sw	s5,4(sp)
 40042d4:	01612023          	sw	s6,0(sp)
 40042d8:	00452403          	lw	s0,4(a0)
 40042dc:	00000717          	auipc	a4,0x0
 40042e0:	fcc70713          	addi	a4,a4,-52 # 40042a8 <_cleanup_r>
 40042e4:	02e52e23          	sw	a4,60(a0)
 40042e8:	2ec50793          	addi	a5,a0,748
 40042ec:	00300713          	li	a4,3
 40042f0:	2ee52223          	sw	a4,740(a0)
 40042f4:	2ef52423          	sw	a5,744(a0)
 40042f8:	2e052023          	sw	zero,736(a0)
 40042fc:	00400793          	li	a5,4
 4004300:	00050913          	mv	s2,a0
 4004304:	00f42623          	sw	a5,12(s0)
 4004308:	00800613          	li	a2,8
 400430c:	00000593          	li	a1,0
 4004310:	06042223          	sw	zero,100(s0)
 4004314:	00042023          	sw	zero,0(s0)
 4004318:	00042223          	sw	zero,4(s0)
 400431c:	00042423          	sw	zero,8(s0)
 4004320:	00042823          	sw	zero,16(s0)
 4004324:	00042a23          	sw	zero,20(s0)
 4004328:	00042c23          	sw	zero,24(s0)
 400432c:	05c40513          	addi	a0,s0,92
 4004330:	cc9fc0ef          	jal	ra,4000ff8 <memset>
 4004334:	00892483          	lw	s1,8(s2)
 4004338:	00004b17          	auipc	s6,0x4
 400433c:	efcb0b13          	addi	s6,s6,-260 # 4008234 <__sread>
 4004340:	00004a97          	auipc	s5,0x4
 4004344:	f50a8a93          	addi	s5,s5,-176 # 4008290 <__swrite>
 4004348:	00004a17          	auipc	s4,0x4
 400434c:	fd0a0a13          	addi	s4,s4,-48 # 4008318 <__sseek>
 4004350:	00004997          	auipc	s3,0x4
 4004354:	03098993          	addi	s3,s3,48 # 4008380 <__sclose>
 4004358:	000107b7          	lui	a5,0x10
 400435c:	03642023          	sw	s6,32(s0)
 4004360:	03542223          	sw	s5,36(s0)
 4004364:	03442423          	sw	s4,40(s0)
 4004368:	03342623          	sw	s3,44(s0)
 400436c:	00842e23          	sw	s0,28(s0)
 4004370:	00978793          	addi	a5,a5,9 # 10009 <_boot-0x3fefff7>
 4004374:	00f4a623          	sw	a5,12(s1)
 4004378:	00800613          	li	a2,8
 400437c:	00000593          	li	a1,0
 4004380:	0604a223          	sw	zero,100(s1)
 4004384:	0004a023          	sw	zero,0(s1)
 4004388:	0004a223          	sw	zero,4(s1)
 400438c:	0004a423          	sw	zero,8(s1)
 4004390:	0004a823          	sw	zero,16(s1)
 4004394:	0004aa23          	sw	zero,20(s1)
 4004398:	0004ac23          	sw	zero,24(s1)
 400439c:	05c48513          	addi	a0,s1,92
 40043a0:	c59fc0ef          	jal	ra,4000ff8 <memset>
 40043a4:	00c92403          	lw	s0,12(s2)
 40043a8:	000207b7          	lui	a5,0x20
 40043ac:	0364a023          	sw	s6,32(s1)
 40043b0:	0354a223          	sw	s5,36(s1)
 40043b4:	0344a423          	sw	s4,40(s1)
 40043b8:	0334a623          	sw	s3,44(s1)
 40043bc:	0094ae23          	sw	s1,28(s1)
 40043c0:	01278793          	addi	a5,a5,18 # 20012 <_boot-0x3fdffee>
 40043c4:	00f42623          	sw	a5,12(s0)
 40043c8:	06042223          	sw	zero,100(s0)
 40043cc:	00042023          	sw	zero,0(s0)
 40043d0:	00042223          	sw	zero,4(s0)
 40043d4:	00042423          	sw	zero,8(s0)
 40043d8:	00042823          	sw	zero,16(s0)
 40043dc:	00042a23          	sw	zero,20(s0)
 40043e0:	00042c23          	sw	zero,24(s0)
 40043e4:	05c40513          	addi	a0,s0,92
 40043e8:	00800613          	li	a2,8
 40043ec:	00000593          	li	a1,0
 40043f0:	c09fc0ef          	jal	ra,4000ff8 <memset>
 40043f4:	01c12083          	lw	ra,28(sp)
 40043f8:	03642023          	sw	s6,32(s0)
 40043fc:	03542223          	sw	s5,36(s0)
 4004400:	03442423          	sw	s4,40(s0)
 4004404:	03342623          	sw	s3,44(s0)
 4004408:	00842e23          	sw	s0,28(s0)
 400440c:	01812403          	lw	s0,24(sp)
 4004410:	00100793          	li	a5,1
 4004414:	02f92c23          	sw	a5,56(s2)
 4004418:	01412483          	lw	s1,20(sp)
 400441c:	01012903          	lw	s2,16(sp)
 4004420:	00c12983          	lw	s3,12(sp)
 4004424:	00812a03          	lw	s4,8(sp)
 4004428:	00412a83          	lw	s5,4(sp)
 400442c:	00012b03          	lw	s6,0(sp)
 4004430:	02010113          	addi	sp,sp,32
 4004434:	00008067          	ret

04004438 <__sinit>:
 4004438:	03852783          	lw	a5,56(a0)
 400443c:	00078463          	beqz	a5,4004444 <__sinit+0xc>
 4004440:	00008067          	ret
 4004444:	e71ff06f          	j	40042b4 <__sinit.part.0>

04004448 <__sfp_lock_acquire>:
 4004448:	00008067          	ret

0400444c <__sfp_lock_release>:
 400444c:	00008067          	ret

04004450 <_malloc_trim_r>:
 4004450:	fe010113          	addi	sp,sp,-32
 4004454:	00812c23          	sw	s0,24(sp)
 4004458:	00912a23          	sw	s1,20(sp)
 400445c:	01212823          	sw	s2,16(sp)
 4004460:	01312623          	sw	s3,12(sp)
 4004464:	01412423          	sw	s4,8(sp)
 4004468:	00058993          	mv	s3,a1
 400446c:	00112e23          	sw	ra,28(sp)
 4004470:	0000fa17          	auipc	s4,0xf
 4004474:	ed4a0a13          	addi	s4,s4,-300 # 4013344 <__malloc_av_>
 4004478:	00050913          	mv	s2,a0
 400447c:	361030ef          	jal	ra,4007fdc <__malloc_lock>
 4004480:	008a2703          	lw	a4,8(s4)
 4004484:	000017b7          	lui	a5,0x1
 4004488:	fef78413          	addi	s0,a5,-17 # fef <_boot-0x3fff011>
 400448c:	00472483          	lw	s1,4(a4)
 4004490:	41340433          	sub	s0,s0,s3
 4004494:	ffc4f493          	andi	s1,s1,-4
 4004498:	00940433          	add	s0,s0,s1
 400449c:	00c45413          	srli	s0,s0,0xc
 40044a0:	fff40413          	addi	s0,s0,-1
 40044a4:	00c41413          	slli	s0,s0,0xc
 40044a8:	00f44e63          	blt	s0,a5,40044c4 <_malloc_trim_r+0x74>
 40044ac:	00000593          	li	a1,0
 40044b0:	00090513          	mv	a0,s2
 40044b4:	3fd030ef          	jal	ra,40080b0 <_sbrk_r>
 40044b8:	008a2783          	lw	a5,8(s4)
 40044bc:	009787b3          	add	a5,a5,s1
 40044c0:	02f50863          	beq	a0,a5,40044f0 <_malloc_trim_r+0xa0>
 40044c4:	00090513          	mv	a0,s2
 40044c8:	319030ef          	jal	ra,4007fe0 <__malloc_unlock>
 40044cc:	01c12083          	lw	ra,28(sp)
 40044d0:	01812403          	lw	s0,24(sp)
 40044d4:	01412483          	lw	s1,20(sp)
 40044d8:	01012903          	lw	s2,16(sp)
 40044dc:	00c12983          	lw	s3,12(sp)
 40044e0:	00812a03          	lw	s4,8(sp)
 40044e4:	00000513          	li	a0,0
 40044e8:	02010113          	addi	sp,sp,32
 40044ec:	00008067          	ret
 40044f0:	408005b3          	neg	a1,s0
 40044f4:	00090513          	mv	a0,s2
 40044f8:	3b9030ef          	jal	ra,40080b0 <_sbrk_r>
 40044fc:	fff00793          	li	a5,-1
 4004500:	04f50a63          	beq	a0,a5,4004554 <_malloc_trim_r+0x104>
 4004504:	00012717          	auipc	a4,0x12
 4004508:	a2c70713          	addi	a4,a4,-1492 # 4015f30 <__malloc_current_mallinfo>
 400450c:	00072783          	lw	a5,0(a4)
 4004510:	008a2683          	lw	a3,8(s4)
 4004514:	408484b3          	sub	s1,s1,s0
 4004518:	0014e493          	ori	s1,s1,1
 400451c:	40878433          	sub	s0,a5,s0
 4004520:	00090513          	mv	a0,s2
 4004524:	0096a223          	sw	s1,4(a3) # 1004 <_boot-0x3ffeffc>
 4004528:	00872023          	sw	s0,0(a4)
 400452c:	2b5030ef          	jal	ra,4007fe0 <__malloc_unlock>
 4004530:	01c12083          	lw	ra,28(sp)
 4004534:	01812403          	lw	s0,24(sp)
 4004538:	01412483          	lw	s1,20(sp)
 400453c:	01012903          	lw	s2,16(sp)
 4004540:	00c12983          	lw	s3,12(sp)
 4004544:	00812a03          	lw	s4,8(sp)
 4004548:	00100513          	li	a0,1
 400454c:	02010113          	addi	sp,sp,32
 4004550:	00008067          	ret
 4004554:	00000593          	li	a1,0
 4004558:	00090513          	mv	a0,s2
 400455c:	355030ef          	jal	ra,40080b0 <_sbrk_r>
 4004560:	008a2703          	lw	a4,8(s4)
 4004564:	00f00693          	li	a3,15
 4004568:	40e507b3          	sub	a5,a0,a4
 400456c:	f4f6dce3          	bge	a3,a5,40044c4 <_malloc_trim_r+0x74>
 4004570:	0000f697          	auipc	a3,0xf
 4004574:	1e06a683          	lw	a3,480(a3) # 4013750 <__malloc_sbrk_base>
 4004578:	40d50533          	sub	a0,a0,a3
 400457c:	0017e793          	ori	a5,a5,1
 4004580:	00012697          	auipc	a3,0x12
 4004584:	9aa6a823          	sw	a0,-1616(a3) # 4015f30 <__malloc_current_mallinfo>
 4004588:	00f72223          	sw	a5,4(a4)
 400458c:	f39ff06f          	j	40044c4 <_malloc_trim_r+0x74>

04004590 <_free_r>:
 4004590:	12058a63          	beqz	a1,40046c4 <_free_r+0x134>
 4004594:	ff010113          	addi	sp,sp,-16
 4004598:	00812423          	sw	s0,8(sp)
 400459c:	00912223          	sw	s1,4(sp)
 40045a0:	00058413          	mv	s0,a1
 40045a4:	00050493          	mv	s1,a0
 40045a8:	00112623          	sw	ra,12(sp)
 40045ac:	231030ef          	jal	ra,4007fdc <__malloc_lock>
 40045b0:	ffc42583          	lw	a1,-4(s0)
 40045b4:	ff840713          	addi	a4,s0,-8
 40045b8:	0000f817          	auipc	a6,0xf
 40045bc:	d8c80813          	addi	a6,a6,-628 # 4013344 <__malloc_av_>
 40045c0:	ffe5f793          	andi	a5,a1,-2
 40045c4:	00f70633          	add	a2,a4,a5
 40045c8:	00462683          	lw	a3,4(a2)
 40045cc:	00882503          	lw	a0,8(a6)
 40045d0:	ffc6f693          	andi	a3,a3,-4
 40045d4:	1ac50a63          	beq	a0,a2,4004788 <_free_r+0x1f8>
 40045d8:	00d62223          	sw	a3,4(a2)
 40045dc:	0015f593          	andi	a1,a1,1
 40045e0:	00d60533          	add	a0,a2,a3
 40045e4:	0a059063          	bnez	a1,4004684 <_free_r+0xf4>
 40045e8:	ff842303          	lw	t1,-8(s0)
 40045ec:	00452583          	lw	a1,4(a0)
 40045f0:	0000f897          	auipc	a7,0xf
 40045f4:	d5c88893          	addi	a7,a7,-676 # 401334c <__malloc_av_+0x8>
 40045f8:	40670733          	sub	a4,a4,t1
 40045fc:	00872503          	lw	a0,8(a4)
 4004600:	006787b3          	add	a5,a5,t1
 4004604:	0015f593          	andi	a1,a1,1
 4004608:	15150063          	beq	a0,a7,4004748 <_free_r+0x1b8>
 400460c:	00c72303          	lw	t1,12(a4)
 4004610:	00652623          	sw	t1,12(a0)
 4004614:	00a32423          	sw	a0,8(t1)
 4004618:	1e058463          	beqz	a1,4004800 <_free_r+0x270>
 400461c:	0017e693          	ori	a3,a5,1
 4004620:	00d72223          	sw	a3,4(a4)
 4004624:	00f62023          	sw	a5,0(a2)
 4004628:	1ff00693          	li	a3,511
 400462c:	0af6e863          	bltu	a3,a5,40046dc <_free_r+0x14c>
 4004630:	ff87f693          	andi	a3,a5,-8
 4004634:	00868693          	addi	a3,a3,8
 4004638:	00482583          	lw	a1,4(a6)
 400463c:	00d806b3          	add	a3,a6,a3
 4004640:	0006a603          	lw	a2,0(a3)
 4004644:	0057d513          	srli	a0,a5,0x5
 4004648:	00100793          	li	a5,1
 400464c:	00a797b3          	sll	a5,a5,a0
 4004650:	00b7e7b3          	or	a5,a5,a1
 4004654:	ff868593          	addi	a1,a3,-8
 4004658:	00b72623          	sw	a1,12(a4)
 400465c:	00c72423          	sw	a2,8(a4)
 4004660:	00f82223          	sw	a5,4(a6)
 4004664:	00e6a023          	sw	a4,0(a3)
 4004668:	00e62623          	sw	a4,12(a2)
 400466c:	00812403          	lw	s0,8(sp)
 4004670:	00c12083          	lw	ra,12(sp)
 4004674:	00048513          	mv	a0,s1
 4004678:	00412483          	lw	s1,4(sp)
 400467c:	01010113          	addi	sp,sp,16
 4004680:	1610306f          	j	4007fe0 <__malloc_unlock>
 4004684:	00452583          	lw	a1,4(a0)
 4004688:	0015f593          	andi	a1,a1,1
 400468c:	02059e63          	bnez	a1,40046c8 <_free_r+0x138>
 4004690:	00d787b3          	add	a5,a5,a3
 4004694:	0000f897          	auipc	a7,0xf
 4004698:	cb888893          	addi	a7,a7,-840 # 401334c <__malloc_av_+0x8>
 400469c:	00862683          	lw	a3,8(a2)
 40046a0:	0017e513          	ori	a0,a5,1
 40046a4:	00f705b3          	add	a1,a4,a5
 40046a8:	17168863          	beq	a3,a7,4004818 <_free_r+0x288>
 40046ac:	00c62603          	lw	a2,12(a2)
 40046b0:	00c6a623          	sw	a2,12(a3)
 40046b4:	00d62423          	sw	a3,8(a2)
 40046b8:	00a72223          	sw	a0,4(a4)
 40046bc:	00f5a023          	sw	a5,0(a1)
 40046c0:	f69ff06f          	j	4004628 <_free_r+0x98>
 40046c4:	00008067          	ret
 40046c8:	0017e693          	ori	a3,a5,1
 40046cc:	fed42e23          	sw	a3,-4(s0)
 40046d0:	00f62023          	sw	a5,0(a2)
 40046d4:	1ff00693          	li	a3,511
 40046d8:	f4f6fce3          	bgeu	a3,a5,4004630 <_free_r+0xa0>
 40046dc:	0097d693          	srli	a3,a5,0x9
 40046e0:	00400613          	li	a2,4
 40046e4:	0ed66c63          	bltu	a2,a3,40047dc <_free_r+0x24c>
 40046e8:	0067d693          	srli	a3,a5,0x6
 40046ec:	03968593          	addi	a1,a3,57
 40046f0:	03868613          	addi	a2,a3,56
 40046f4:	00359593          	slli	a1,a1,0x3
 40046f8:	00b805b3          	add	a1,a6,a1
 40046fc:	0005a683          	lw	a3,0(a1)
 4004700:	ff858593          	addi	a1,a1,-8
 4004704:	12d58863          	beq	a1,a3,4004834 <_free_r+0x2a4>
 4004708:	0046a603          	lw	a2,4(a3)
 400470c:	ffc67613          	andi	a2,a2,-4
 4004710:	00c7f663          	bgeu	a5,a2,400471c <_free_r+0x18c>
 4004714:	0086a683          	lw	a3,8(a3)
 4004718:	fed598e3          	bne	a1,a3,4004708 <_free_r+0x178>
 400471c:	00c6a583          	lw	a1,12(a3)
 4004720:	00b72623          	sw	a1,12(a4)
 4004724:	00d72423          	sw	a3,8(a4)
 4004728:	00812403          	lw	s0,8(sp)
 400472c:	00c12083          	lw	ra,12(sp)
 4004730:	00e5a423          	sw	a4,8(a1)
 4004734:	00048513          	mv	a0,s1
 4004738:	00412483          	lw	s1,4(sp)
 400473c:	00e6a623          	sw	a4,12(a3)
 4004740:	01010113          	addi	sp,sp,16
 4004744:	09d0306f          	j	4007fe0 <__malloc_unlock>
 4004748:	14059663          	bnez	a1,4004894 <_free_r+0x304>
 400474c:	00c62583          	lw	a1,12(a2)
 4004750:	00862603          	lw	a2,8(a2)
 4004754:	00f687b3          	add	a5,a3,a5
 4004758:	00812403          	lw	s0,8(sp)
 400475c:	00b62623          	sw	a1,12(a2)
 4004760:	00c5a423          	sw	a2,8(a1)
 4004764:	0017e693          	ori	a3,a5,1
 4004768:	00c12083          	lw	ra,12(sp)
 400476c:	00d72223          	sw	a3,4(a4)
 4004770:	00048513          	mv	a0,s1
 4004774:	00f70733          	add	a4,a4,a5
 4004778:	00412483          	lw	s1,4(sp)
 400477c:	00f72023          	sw	a5,0(a4)
 4004780:	01010113          	addi	sp,sp,16
 4004784:	05d0306f          	j	4007fe0 <__malloc_unlock>
 4004788:	0015f593          	andi	a1,a1,1
 400478c:	00d787b3          	add	a5,a5,a3
 4004790:	02059063          	bnez	a1,40047b0 <_free_r+0x220>
 4004794:	ff842583          	lw	a1,-8(s0)
 4004798:	40b70733          	sub	a4,a4,a1
 400479c:	00c72683          	lw	a3,12(a4)
 40047a0:	00872603          	lw	a2,8(a4)
 40047a4:	00b787b3          	add	a5,a5,a1
 40047a8:	00d62623          	sw	a3,12(a2)
 40047ac:	00c6a423          	sw	a2,8(a3)
 40047b0:	0017e693          	ori	a3,a5,1
 40047b4:	00d72223          	sw	a3,4(a4)
 40047b8:	00e82423          	sw	a4,8(a6)
 40047bc:	0000f717          	auipc	a4,0xf
 40047c0:	f9872703          	lw	a4,-104(a4) # 4013754 <__malloc_trim_threshold>
 40047c4:	eae7e4e3          	bltu	a5,a4,400466c <_free_r+0xdc>
 40047c8:	00011597          	auipc	a1,0x11
 40047cc:	7c85a583          	lw	a1,1992(a1) # 4015f90 <__malloc_top_pad>
 40047d0:	00048513          	mv	a0,s1
 40047d4:	c7dff0ef          	jal	ra,4004450 <_malloc_trim_r>
 40047d8:	e95ff06f          	j	400466c <_free_r+0xdc>
 40047dc:	01400613          	li	a2,20
 40047e0:	02d67463          	bgeu	a2,a3,4004808 <_free_r+0x278>
 40047e4:	05400613          	li	a2,84
 40047e8:	06d66463          	bltu	a2,a3,4004850 <_free_r+0x2c0>
 40047ec:	00c7d693          	srli	a3,a5,0xc
 40047f0:	06f68593          	addi	a1,a3,111
 40047f4:	06e68613          	addi	a2,a3,110
 40047f8:	00359593          	slli	a1,a1,0x3
 40047fc:	efdff06f          	j	40046f8 <_free_r+0x168>
 4004800:	00d787b3          	add	a5,a5,a3
 4004804:	e99ff06f          	j	400469c <_free_r+0x10c>
 4004808:	05c68593          	addi	a1,a3,92
 400480c:	05b68613          	addi	a2,a3,91
 4004810:	00359593          	slli	a1,a1,0x3
 4004814:	ee5ff06f          	j	40046f8 <_free_r+0x168>
 4004818:	00e82a23          	sw	a4,20(a6)
 400481c:	00e82823          	sw	a4,16(a6)
 4004820:	01172623          	sw	a7,12(a4)
 4004824:	01172423          	sw	a7,8(a4)
 4004828:	00a72223          	sw	a0,4(a4)
 400482c:	00f5a023          	sw	a5,0(a1)
 4004830:	e3dff06f          	j	400466c <_free_r+0xdc>
 4004834:	00482503          	lw	a0,4(a6)
 4004838:	40265613          	srai	a2,a2,0x2
 400483c:	00100793          	li	a5,1
 4004840:	00c79633          	sll	a2,a5,a2
 4004844:	00a66633          	or	a2,a2,a0
 4004848:	00c82223          	sw	a2,4(a6)
 400484c:	ed5ff06f          	j	4004720 <_free_r+0x190>
 4004850:	15400613          	li	a2,340
 4004854:	00d66c63          	bltu	a2,a3,400486c <_free_r+0x2dc>
 4004858:	00f7d693          	srli	a3,a5,0xf
 400485c:	07868593          	addi	a1,a3,120
 4004860:	07768613          	addi	a2,a3,119
 4004864:	00359593          	slli	a1,a1,0x3
 4004868:	e91ff06f          	j	40046f8 <_free_r+0x168>
 400486c:	55400613          	li	a2,1364
 4004870:	00d66c63          	bltu	a2,a3,4004888 <_free_r+0x2f8>
 4004874:	0127d693          	srli	a3,a5,0x12
 4004878:	07d68593          	addi	a1,a3,125
 400487c:	07c68613          	addi	a2,a3,124
 4004880:	00359593          	slli	a1,a1,0x3
 4004884:	e75ff06f          	j	40046f8 <_free_r+0x168>
 4004888:	3f800593          	li	a1,1016
 400488c:	07e00613          	li	a2,126
 4004890:	e69ff06f          	j	40046f8 <_free_r+0x168>
 4004894:	0017e693          	ori	a3,a5,1
 4004898:	00d72223          	sw	a3,4(a4)
 400489c:	00f62023          	sw	a5,0(a2)
 40048a0:	dcdff06f          	j	400466c <_free_r+0xdc>

040048a4 <_fwalk_reent>:
 40048a4:	fd010113          	addi	sp,sp,-48
 40048a8:	03212023          	sw	s2,32(sp)
 40048ac:	01312e23          	sw	s3,28(sp)
 40048b0:	01412c23          	sw	s4,24(sp)
 40048b4:	01512a23          	sw	s5,20(sp)
 40048b8:	01612823          	sw	s6,16(sp)
 40048bc:	01712623          	sw	s7,12(sp)
 40048c0:	02112623          	sw	ra,44(sp)
 40048c4:	02812423          	sw	s0,40(sp)
 40048c8:	02912223          	sw	s1,36(sp)
 40048cc:	00050a93          	mv	s5,a0
 40048d0:	00058b93          	mv	s7,a1
 40048d4:	2e050b13          	addi	s6,a0,736
 40048d8:	00000a13          	li	s4,0
 40048dc:	00100993          	li	s3,1
 40048e0:	fff00913          	li	s2,-1
 40048e4:	004b2483          	lw	s1,4(s6)
 40048e8:	008b2403          	lw	s0,8(s6)
 40048ec:	fff48493          	addi	s1,s1,-1
 40048f0:	0204c863          	bltz	s1,4004920 <_fwalk_reent+0x7c>
 40048f4:	00c45783          	lhu	a5,12(s0)
 40048f8:	fff48493          	addi	s1,s1,-1
 40048fc:	00f9fe63          	bgeu	s3,a5,4004918 <_fwalk_reent+0x74>
 4004900:	00e41783          	lh	a5,14(s0)
 4004904:	00040593          	mv	a1,s0
 4004908:	000a8513          	mv	a0,s5
 400490c:	01278663          	beq	a5,s2,4004918 <_fwalk_reent+0x74>
 4004910:	000b80e7          	jalr	s7
 4004914:	00aa6a33          	or	s4,s4,a0
 4004918:	06840413          	addi	s0,s0,104
 400491c:	fd249ce3          	bne	s1,s2,40048f4 <_fwalk_reent+0x50>
 4004920:	000b2b03          	lw	s6,0(s6)
 4004924:	fc0b10e3          	bnez	s6,40048e4 <_fwalk_reent+0x40>
 4004928:	02c12083          	lw	ra,44(sp)
 400492c:	02812403          	lw	s0,40(sp)
 4004930:	02412483          	lw	s1,36(sp)
 4004934:	02012903          	lw	s2,32(sp)
 4004938:	01c12983          	lw	s3,28(sp)
 400493c:	01412a83          	lw	s5,20(sp)
 4004940:	01012b03          	lw	s6,16(sp)
 4004944:	00c12b83          	lw	s7,12(sp)
 4004948:	000a0513          	mv	a0,s4
 400494c:	01812a03          	lw	s4,24(sp)
 4004950:	03010113          	addi	sp,sp,48
 4004954:	00008067          	ret

04004958 <eshdn1>:
 4004958:	00450693          	addi	a3,a0,4
 400495c:	00000793          	li	a5,0
 4004960:	01a50513          	addi	a0,a0,26
 4004964:	ffff8837          	lui	a6,0xffff8
 4004968:	01c0006f          	j	4004984 <eshdn1+0x2c>
 400496c:	00179793          	slli	a5,a5,0x1
 4004970:	00e69023          	sh	a4,0(a3)
 4004974:	01079793          	slli	a5,a5,0x10
 4004978:	00268693          	addi	a3,a3,2
 400497c:	0107d793          	srli	a5,a5,0x10
 4004980:	02d50e63          	beq	a0,a3,40049bc <eshdn1+0x64>
 4004984:	0006d703          	lhu	a4,0(a3)
 4004988:	00177613          	andi	a2,a4,1
 400498c:	00060463          	beqz	a2,4004994 <eshdn1+0x3c>
 4004990:	0017e793          	ori	a5,a5,1
 4004994:	00175713          	srli	a4,a4,0x1
 4004998:	0027f613          	andi	a2,a5,2
 400499c:	010765b3          	or	a1,a4,a6
 40049a0:	fc0606e3          	beqz	a2,400496c <eshdn1+0x14>
 40049a4:	00179793          	slli	a5,a5,0x1
 40049a8:	00b69023          	sh	a1,0(a3)
 40049ac:	01079793          	slli	a5,a5,0x10
 40049b0:	00268693          	addi	a3,a3,2
 40049b4:	0107d793          	srli	a5,a5,0x10
 40049b8:	fcd516e3          	bne	a0,a3,4004984 <eshdn1+0x2c>
 40049bc:	00008067          	ret

040049c0 <eshup1>:
 40049c0:	01850693          	addi	a3,a0,24
 40049c4:	00000713          	li	a4,0
 40049c8:	00250513          	addi	a0,a0,2
 40049cc:	01c0006f          	j	40049e8 <eshup1+0x28>
 40049d0:	00171713          	slli	a4,a4,0x1
 40049d4:	00f69023          	sh	a5,0(a3)
 40049d8:	01071713          	slli	a4,a4,0x10
 40049dc:	ffe68693          	addi	a3,a3,-2
 40049e0:	01075713          	srli	a4,a4,0x10
 40049e4:	04d50463          	beq	a0,a3,4004a2c <eshup1+0x6c>
 40049e8:	0006d783          	lhu	a5,0(a3)
 40049ec:	01079613          	slli	a2,a5,0x10
 40049f0:	41065613          	srai	a2,a2,0x10
 40049f4:	00179793          	slli	a5,a5,0x1
 40049f8:	00065463          	bgez	a2,4004a00 <eshup1+0x40>
 40049fc:	00176713          	ori	a4,a4,1
 4004a00:	01079793          	slli	a5,a5,0x10
 4004a04:	0107d793          	srli	a5,a5,0x10
 4004a08:	00277613          	andi	a2,a4,2
 4004a0c:	0017e593          	ori	a1,a5,1
 4004a10:	fc0600e3          	beqz	a2,40049d0 <eshup1+0x10>
 4004a14:	00171713          	slli	a4,a4,0x1
 4004a18:	00b69023          	sh	a1,0(a3)
 4004a1c:	01071713          	slli	a4,a4,0x10
 4004a20:	ffe68693          	addi	a3,a3,-2
 4004a24:	01075713          	srli	a4,a4,0x10
 4004a28:	fcd510e3          	bne	a0,a3,40049e8 <eshup1+0x28>
 4004a2c:	00008067          	ret

04004a30 <m16m>:
 4004a30:	fe010113          	addi	sp,sp,-32
 4004a34:	00010e37          	lui	t3,0x10
 4004a38:	00011d23          	sh	zero,26(sp)
 4004a3c:	00011e23          	sh	zero,28(sp)
 4004a40:	01858593          	addi	a1,a1,24
 4004a44:	01c10793          	addi	a5,sp,28
 4004a48:	00810813          	addi	a6,sp,8
 4004a4c:	fffe0e13          	addi	t3,t3,-1 # ffff <_boot-0x3ff0001>
 4004a50:	0005d703          	lhu	a4,0(a1)
 4004a54:	ffe78793          	addi	a5,a5,-2
 4004a58:	ffe58593          	addi	a1,a1,-2
 4004a5c:	02071863          	bnez	a4,4004a8c <m16m+0x5c>
 4004a60:	fe079f23          	sh	zero,-2(a5)
 4004a64:	ff0796e3          	bne	a5,a6,4004a50 <m16m+0x20>
 4004a68:	00460613          	addi	a2,a2,4
 4004a6c:	01e10693          	addi	a3,sp,30
 4004a70:	0007d703          	lhu	a4,0(a5)
 4004a74:	00278793          	addi	a5,a5,2
 4004a78:	00260613          	addi	a2,a2,2
 4004a7c:	fee61f23          	sh	a4,-2(a2)
 4004a80:	fed798e3          	bne	a5,a3,4004a70 <m16m+0x40>
 4004a84:	02010113          	addi	sp,sp,32
 4004a88:	00008067          	ret
 4004a8c:	02a70733          	mul	a4,a4,a0
 4004a90:	0027d883          	lhu	a7,2(a5)
 4004a94:	0007d303          	lhu	t1,0(a5)
 4004a98:	01c776b3          	and	a3,a4,t3
 4004a9c:	011686b3          	add	a3,a3,a7
 4004aa0:	01075713          	srli	a4,a4,0x10
 4004aa4:	0106d893          	srli	a7,a3,0x10
 4004aa8:	00670733          	add	a4,a4,t1
 4004aac:	01170733          	add	a4,a4,a7
 4004ab0:	01075893          	srli	a7,a4,0x10
 4004ab4:	00d79123          	sh	a3,2(a5)
 4004ab8:	00e79023          	sh	a4,0(a5)
 4004abc:	ff179f23          	sh	a7,-2(a5)
 4004ac0:	f90798e3          	bne	a5,a6,4004a50 <m16m+0x20>
 4004ac4:	fa5ff06f          	j	4004a68 <m16m+0x38>

04004ac8 <emovo.constprop.0>:
 4004ac8:	00055703          	lhu	a4,0(a0)
 4004acc:	00255783          	lhu	a5,2(a0)
 4004ad0:	00070663          	beqz	a4,4004adc <emovo.constprop.0+0x14>
 4004ad4:	00008737          	lui	a4,0x8
 4004ad8:	00e7e7b3          	or	a5,a5,a4
 4004adc:	00f59923          	sh	a5,18(a1)
 4004ae0:	00255703          	lhu	a4,2(a0)
 4004ae4:	000087b7          	lui	a5,0x8
 4004ae8:	fff78793          	addi	a5,a5,-1 # 7fff <_boot-0x3ff8001>
 4004aec:	02f70463          	beq	a4,a5,4004b14 <emovo.constprop.0+0x4c>
 4004af0:	00650793          	addi	a5,a0,6
 4004af4:	01058593          	addi	a1,a1,16
 4004af8:	01850513          	addi	a0,a0,24
 4004afc:	0007d703          	lhu	a4,0(a5)
 4004b00:	00278793          	addi	a5,a5,2
 4004b04:	ffe58593          	addi	a1,a1,-2
 4004b08:	00e59123          	sh	a4,2(a1)
 4004b0c:	fea798e3          	bne	a5,a0,4004afc <emovo.constprop.0+0x34>
 4004b10:	00008067          	ret
 4004b14:	00650793          	addi	a5,a0,6
 4004b18:	01a50513          	addi	a0,a0,26
 4004b1c:	0007d703          	lhu	a4,0(a5)
 4004b20:	00278793          	addi	a5,a5,2
 4004b24:	02071a63          	bnez	a4,4004b58 <emovo.constprop.0+0x90>
 4004b28:	fea79ae3          	bne	a5,a0,4004b1c <emovo.constprop.0+0x54>
 4004b2c:	01258713          	addi	a4,a1,18
 4004b30:	00058793          	mv	a5,a1
 4004b34:	00278793          	addi	a5,a5,2
 4004b38:	fe079f23          	sh	zero,-2(a5)
 4004b3c:	fef71ce3          	bne	a4,a5,4004b34 <emovo.constprop.0+0x6c>
 4004b40:	0125d783          	lhu	a5,18(a1)
 4004b44:	00008737          	lui	a4,0x8
 4004b48:	fff70713          	addi	a4,a4,-1 # 7fff <_boot-0x3ff8001>
 4004b4c:	00e7e7b3          	or	a5,a5,a4
 4004b50:	00f59923          	sh	a5,18(a1)
 4004b54:	00008067          	ret
 4004b58:	01058713          	addi	a4,a1,16
 4004b5c:	00058793          	mv	a5,a1
 4004b60:	00278793          	addi	a5,a5,2
 4004b64:	fe079f23          	sh	zero,-2(a5)
 4004b68:	fef71ce3          	bne	a4,a5,4004b60 <emovo.constprop.0+0x98>
 4004b6c:	ffffc7b7          	lui	a5,0xffffc
 4004b70:	00f59823          	sh	a5,16(a1)
 4004b74:	ffff87b7          	lui	a5,0xffff8
 4004b78:	fff7c793          	not	a5,a5
 4004b7c:	00f59923          	sh	a5,18(a1)
 4004b80:	00008067          	ret

04004b84 <enormlz>:
 4004b84:	00455783          	lhu	a5,4(a0)
 4004b88:	ff010113          	addi	sp,sp,-16
 4004b8c:	00912223          	sw	s1,4(sp)
 4004b90:	00112623          	sw	ra,12(sp)
 4004b94:	00812423          	sw	s0,8(sp)
 4004b98:	01212023          	sw	s2,0(sp)
 4004b9c:	00050493          	mv	s1,a0
 4004ba0:	0c079c63          	bnez	a5,4004c78 <enormlz+0xf4>
 4004ba4:	00655703          	lhu	a4,6(a0)
 4004ba8:	00000413          	li	s0,0
 4004bac:	01071793          	slli	a5,a4,0x10
 4004bb0:	4107d793          	srai	a5,a5,0x10
 4004bb4:	0a07c463          	bltz	a5,4004c5c <enormlz+0xd8>
 4004bb8:	01a50693          	addi	a3,a0,26
 4004bbc:	0a000613          	li	a2,160
 4004bc0:	02071863          	bnez	a4,4004bf0 <enormlz+0x6c>
 4004bc4:	00648793          	addi	a5,s1,6
 4004bc8:	0080006f          	j	4004bd0 <enormlz+0x4c>
 4004bcc:	0007d703          	lhu	a4,0(a5) # ffff8000 <__stack+0xf9ff8000>
 4004bd0:	00278793          	addi	a5,a5,2
 4004bd4:	fee79e23          	sh	a4,-4(a5)
 4004bd8:	fed79ae3          	bne	a5,a3,4004bcc <enormlz+0x48>
 4004bdc:	00049c23          	sh	zero,24(s1)
 4004be0:	01040413          	addi	s0,s0,16
 4004be4:	06c40c63          	beq	s0,a2,4004c5c <enormlz+0xd8>
 4004be8:	0064d703          	lhu	a4,6(s1)
 4004bec:	fc070ce3          	beqz	a4,4004bc4 <enormlz+0x40>
 4004bf0:	f0077793          	andi	a5,a4,-256
 4004bf4:	04079063          	bnez	a5,4004c34 <enormlz+0xb0>
 4004bf8:	01848513          	addi	a0,s1,24
 4004bfc:	00248593          	addi	a1,s1,2
 4004c00:	00000793          	li	a5,0
 4004c04:	00050713          	mv	a4,a0
 4004c08:	00075683          	lhu	a3,0(a4)
 4004c0c:	ffe70713          	addi	a4,a4,-2
 4004c10:	00869613          	slli	a2,a3,0x8
 4004c14:	00c7e7b3          	or	a5,a5,a2
 4004c18:	00f71123          	sh	a5,2(a4)
 4004c1c:	0086d793          	srli	a5,a3,0x8
 4004c20:	fee594e3          	bne	a1,a4,4004c08 <enormlz+0x84>
 4004c24:	0064d703          	lhu	a4,6(s1)
 4004c28:	00840413          	addi	s0,s0,8
 4004c2c:	f0077793          	andi	a5,a4,-256
 4004c30:	fc0788e3          	beqz	a5,4004c00 <enormlz+0x7c>
 4004c34:	0a000913          	li	s2,160
 4004c38:	0140006f          	j	4004c4c <enormlz+0xc8>
 4004c3c:	00140413          	addi	s0,s0,1
 4004c40:	d81ff0ef          	jal	ra,40049c0 <eshup1>
 4004c44:	00894c63          	blt	s2,s0,4004c5c <enormlz+0xd8>
 4004c48:	0064d703          	lhu	a4,6(s1)
 4004c4c:	01071713          	slli	a4,a4,0x10
 4004c50:	41075713          	srai	a4,a4,0x10
 4004c54:	00048513          	mv	a0,s1
 4004c58:	fe0752e3          	bgez	a4,4004c3c <enormlz+0xb8>
 4004c5c:	00c12083          	lw	ra,12(sp)
 4004c60:	00040513          	mv	a0,s0
 4004c64:	00812403          	lw	s0,8(sp)
 4004c68:	00412483          	lw	s1,4(sp)
 4004c6c:	00012903          	lw	s2,0(sp)
 4004c70:	01010113          	addi	sp,sp,16
 4004c74:	00008067          	ret
 4004c78:	f007f713          	andi	a4,a5,-256
 4004c7c:	00000413          	li	s0,0
 4004c80:	04071063          	bnez	a4,4004cc0 <enormlz+0x13c>
 4004c84:	f6f00913          	li	s2,-145
 4004c88:	0140006f          	j	4004c9c <enormlz+0x118>
 4004c8c:	fff40413          	addi	s0,s0,-1
 4004c90:	cc9ff0ef          	jal	ra,4004958 <eshdn1>
 4004c94:	fd2404e3          	beq	s0,s2,4004c5c <enormlz+0xd8>
 4004c98:	0044d783          	lhu	a5,4(s1)
 4004c9c:	00048513          	mv	a0,s1
 4004ca0:	fe0796e3          	bnez	a5,4004c8c <enormlz+0x108>
 4004ca4:	00c12083          	lw	ra,12(sp)
 4004ca8:	00040513          	mv	a0,s0
 4004cac:	00812403          	lw	s0,8(sp)
 4004cb0:	00412483          	lw	s1,4(sp)
 4004cb4:	00012903          	lw	s2,0(sp)
 4004cb8:	01010113          	addi	sp,sp,16
 4004cbc:	00008067          	ret
 4004cc0:	00450693          	addi	a3,a0,4
 4004cc4:	01a50593          	addi	a1,a0,26
 4004cc8:	00000713          	li	a4,0
 4004ccc:	0080006f          	j	4004cd4 <enormlz+0x150>
 4004cd0:	0006d783          	lhu	a5,0(a3)
 4004cd4:	0087d613          	srli	a2,a5,0x8
 4004cd8:	00c76733          	or	a4,a4,a2
 4004cdc:	00879793          	slli	a5,a5,0x8
 4004ce0:	00e69023          	sh	a4,0(a3)
 4004ce4:	01079713          	slli	a4,a5,0x10
 4004ce8:	00268693          	addi	a3,a3,2
 4004cec:	01075713          	srli	a4,a4,0x10
 4004cf0:	fed590e3          	bne	a1,a3,4004cd0 <enormlz+0x14c>
 4004cf4:	0044d783          	lhu	a5,4(s1)
 4004cf8:	ff800413          	li	s0,-8
 4004cfc:	f89ff06f          	j	4004c84 <enormlz+0x100>

04004d00 <eshift.part.0>:
 4004d00:	fe010113          	addi	sp,sp,-32
 4004d04:	00812c23          	sw	s0,24(sp)
 4004d08:	00912a23          	sw	s1,20(sp)
 4004d0c:	00112e23          	sw	ra,28(sp)
 4004d10:	01212823          	sw	s2,16(sp)
 4004d14:	01312623          	sw	s3,12(sp)
 4004d18:	00058493          	mv	s1,a1
 4004d1c:	00050413          	mv	s0,a0
 4004d20:	0a05c463          	bltz	a1,4004dc8 <eshift.part.0+0xc8>
 4004d24:	00f00793          	li	a5,15
 4004d28:	00058613          	mv	a2,a1
 4004d2c:	00450513          	addi	a0,a0,4
 4004d30:	01840693          	addi	a3,s0,24
 4004d34:	00f00593          	li	a1,15
 4004d38:	0297d463          	bge	a5,s1,4004d60 <eshift.part.0+0x60>
 4004d3c:	00050793          	mv	a5,a0
 4004d40:	0027d703          	lhu	a4,2(a5)
 4004d44:	00278793          	addi	a5,a5,2
 4004d48:	fee79f23          	sh	a4,-2(a5)
 4004d4c:	fef69ae3          	bne	a3,a5,4004d40 <eshift.part.0+0x40>
 4004d50:	00041c23          	sh	zero,24(s0)
 4004d54:	ff060613          	addi	a2,a2,-16
 4004d58:	fec5c2e3          	blt	a1,a2,4004d3c <eshift.part.0+0x3c>
 4004d5c:	00f4f493          	andi	s1,s1,15
 4004d60:	00700793          	li	a5,7
 4004d64:	0297d863          	bge	a5,s1,4004d94 <eshift.part.0+0x94>
 4004d68:	01840713          	addi	a4,s0,24
 4004d6c:	00240593          	addi	a1,s0,2
 4004d70:	00000793          	li	a5,0
 4004d74:	00075683          	lhu	a3,0(a4)
 4004d78:	ffe70713          	addi	a4,a4,-2
 4004d7c:	00869613          	slli	a2,a3,0x8
 4004d80:	00c7e7b3          	or	a5,a5,a2
 4004d84:	00f71123          	sh	a5,2(a4)
 4004d88:	0086d793          	srli	a5,a3,0x8
 4004d8c:	fee594e3          	bne	a1,a4,4004d74 <eshift.part.0+0x74>
 4004d90:	ff848493          	addi	s1,s1,-8
 4004d94:	00048a63          	beqz	s1,4004da8 <eshift.part.0+0xa8>
 4004d98:	fff48493          	addi	s1,s1,-1
 4004d9c:	00040513          	mv	a0,s0
 4004da0:	c21ff0ef          	jal	ra,40049c0 <eshup1>
 4004da4:	fe049ae3          	bnez	s1,4004d98 <eshift.part.0+0x98>
 4004da8:	00000513          	li	a0,0
 4004dac:	01c12083          	lw	ra,28(sp)
 4004db0:	01812403          	lw	s0,24(sp)
 4004db4:	01412483          	lw	s1,20(sp)
 4004db8:	01012903          	lw	s2,16(sp)
 4004dbc:	00c12983          	lw	s3,12(sp)
 4004dc0:	02010113          	addi	sp,sp,32
 4004dc4:	00008067          	ret
 4004dc8:	ff100793          	li	a5,-15
 4004dcc:	40b00933          	neg	s2,a1
 4004dd0:	12f5de63          	bge	a1,a5,4004f0c <eshift.part.0+0x20c>
 4004dd4:	01850593          	addi	a1,a0,24
 4004dd8:	00000993          	li	s3,0
 4004ddc:	00450693          	addi	a3,a0,4
 4004de0:	00f00613          	li	a2,15
 4004de4:	01845703          	lhu	a4,24(s0)
 4004de8:	00058793          	mv	a5,a1
 4004dec:	00e9e9b3          	or	s3,s3,a4
 4004df0:	ffe7d703          	lhu	a4,-2(a5)
 4004df4:	ffe78793          	addi	a5,a5,-2
 4004df8:	00e79123          	sh	a4,2(a5)
 4004dfc:	fed79ae3          	bne	a5,a3,4004df0 <eshift.part.0+0xf0>
 4004e00:	00041223          	sh	zero,4(s0)
 4004e04:	ff090913          	addi	s2,s2,-16
 4004e08:	fd264ee3          	blt	a2,s2,4004de4 <eshift.part.0+0xe4>
 4004e0c:	ff000913          	li	s2,-16
 4004e10:	ff100713          	li	a4,-15
 4004e14:	40990933          	sub	s2,s2,s1
 4004e18:	00000793          	li	a5,0
 4004e1c:	0ae4c663          	blt	s1,a4,4004ec8 <eshift.part.0+0x1c8>
 4004e20:	00f90933          	add	s2,s2,a5
 4004e24:	00700793          	li	a5,7
 4004e28:	0527ca63          	blt	a5,s2,4004e7c <eshift.part.0+0x17c>
 4004e2c:	0c090263          	beqz	s2,4004ef0 <eshift.part.0+0x1f0>
 4004e30:	01845783          	lhu	a5,24(s0)
 4004e34:	fff90913          	addi	s2,s2,-1
 4004e38:	00040513          	mv	a0,s0
 4004e3c:	0017f793          	andi	a5,a5,1
 4004e40:	0137e9b3          	or	s3,a5,s3
 4004e44:	b15ff0ef          	jal	ra,4004958 <eshdn1>
 4004e48:	fe0914e3          	bnez	s2,4004e30 <eshift.part.0+0x130>
 4004e4c:	01099793          	slli	a5,s3,0x10
 4004e50:	4107d793          	srai	a5,a5,0x10
 4004e54:	08079663          	bnez	a5,4004ee0 <eshift.part.0+0x1e0>
 4004e58:	01099513          	slli	a0,s3,0x10
 4004e5c:	01055513          	srli	a0,a0,0x10
 4004e60:	01c12083          	lw	ra,28(sp)
 4004e64:	01812403          	lw	s0,24(sp)
 4004e68:	01412483          	lw	s1,20(sp)
 4004e6c:	01012903          	lw	s2,16(sp)
 4004e70:	00c12983          	lw	s3,12(sp)
 4004e74:	02010113          	addi	sp,sp,32
 4004e78:	00008067          	ret
 4004e7c:	01099993          	slli	s3,s3,0x10
 4004e80:	4109d993          	srai	s3,s3,0x10
 4004e84:	01844783          	lbu	a5,24(s0)
 4004e88:	01a40593          	addi	a1,s0,26
 4004e8c:	00f9e9b3          	or	s3,s3,a5
 4004e90:	01099993          	slli	s3,s3,0x10
 4004e94:	0109d993          	srli	s3,s3,0x10
 4004e98:	00000793          	li	a5,0
 4004e9c:	0006d703          	lhu	a4,0(a3)
 4004ea0:	00268693          	addi	a3,a3,2
 4004ea4:	00875613          	srli	a2,a4,0x8
 4004ea8:	00c7e7b3          	or	a5,a5,a2
 4004eac:	00871713          	slli	a4,a4,0x8
 4004eb0:	fef69f23          	sh	a5,-2(a3)
 4004eb4:	01071793          	slli	a5,a4,0x10
 4004eb8:	0107d793          	srli	a5,a5,0x10
 4004ebc:	fed590e3          	bne	a1,a3,4004e9c <eshift.part.0+0x19c>
 4004ec0:	ff890913          	addi	s2,s2,-8
 4004ec4:	f69ff06f          	j	4004e2c <eshift.part.0+0x12c>
 4004ec8:	ff097793          	andi	a5,s2,-16
 4004ecc:	40f007b3          	neg	a5,a5
 4004ed0:	00f90933          	add	s2,s2,a5
 4004ed4:	00700793          	li	a5,7
 4004ed8:	f527dae3          	bge	a5,s2,4004e2c <eshift.part.0+0x12c>
 4004edc:	fa1ff06f          	j	4004e7c <eshift.part.0+0x17c>
 4004ee0:	00100993          	li	s3,1
 4004ee4:	01099513          	slli	a0,s3,0x10
 4004ee8:	01055513          	srli	a0,a0,0x10
 4004eec:	f75ff06f          	j	4004e60 <eshift.part.0+0x160>
 4004ef0:	00098513          	mv	a0,s3
 4004ef4:	00099863          	bnez	s3,4004f04 <eshift.part.0+0x204>
 4004ef8:	01051513          	slli	a0,a0,0x10
 4004efc:	01055513          	srli	a0,a0,0x10
 4004f00:	eadff06f          	j	4004dac <eshift.part.0+0xac>
 4004f04:	00100513          	li	a0,1
 4004f08:	ff1ff06f          	j	4004ef8 <eshift.part.0+0x1f8>
 4004f0c:	ff900793          	li	a5,-7
 4004f10:	00000993          	li	s3,0
 4004f14:	00450693          	addi	a3,a0,4
 4004f18:	f6f5c6e3          	blt	a1,a5,4004e84 <eshift.part.0+0x184>
 4004f1c:	f15ff06f          	j	4004e30 <eshift.part.0+0x130>

04004f20 <emovi>:
 4004f20:	01255783          	lhu	a5,18(a0)
 4004f24:	00008637          	lui	a2,0x8
 4004f28:	fff60613          	addi	a2,a2,-1 # 7fff <_boot-0x3ff8001>
 4004f2c:	00f7d793          	srli	a5,a5,0xf
 4004f30:	40f007b3          	neg	a5,a5
 4004f34:	00f59023          	sh	a5,0(a1)
 4004f38:	01255683          	lhu	a3,18(a0)
 4004f3c:	01050793          	addi	a5,a0,16
 4004f40:	00458713          	addi	a4,a1,4
 4004f44:	00d676b3          	and	a3,a2,a3
 4004f48:	00d59123          	sh	a3,2(a1)
 4004f4c:	02c68663          	beq	a3,a2,4004f78 <emovi+0x58>
 4004f50:	00658713          	addi	a4,a1,6
 4004f54:	00059223          	sh	zero,4(a1)
 4004f58:	ffe50513          	addi	a0,a0,-2
 4004f5c:	0007d683          	lhu	a3,0(a5)
 4004f60:	ffe78793          	addi	a5,a5,-2
 4004f64:	00270713          	addi	a4,a4,2
 4004f68:	fed71f23          	sh	a3,-2(a4)
 4004f6c:	fef518e3          	bne	a0,a5,4004f5c <emovi+0x3c>
 4004f70:	00059c23          	sh	zero,24(a1)
 4004f74:	00008067          	ret
 4004f78:	01255603          	lhu	a2,18(a0)
 4004f7c:	00c6f633          	and	a2,a3,a2
 4004f80:	00d61e63          	bne	a2,a3,4004f9c <emovi+0x7c>
 4004f84:	01250813          	addi	a6,a0,18
 4004f88:	00050693          	mv	a3,a0
 4004f8c:	0006d603          	lhu	a2,0(a3)
 4004f90:	00268693          	addi	a3,a3,2
 4004f94:	00061e63          	bnez	a2,4004fb0 <emovi+0x90>
 4004f98:	ff069ae3          	bne	a3,a6,4004f8c <emovi+0x6c>
 4004f9c:	01a58593          	addi	a1,a1,26
 4004fa0:	00270713          	addi	a4,a4,2
 4004fa4:	fe071f23          	sh	zero,-2(a4)
 4004fa8:	fee59ce3          	bne	a1,a4,4004fa0 <emovi+0x80>
 4004fac:	00008067          	ret
 4004fb0:	00658713          	addi	a4,a1,6
 4004fb4:	00059223          	sh	zero,4(a1)
 4004fb8:	ffc50513          	addi	a0,a0,-4
 4004fbc:	0007d683          	lhu	a3,0(a5)
 4004fc0:	ffe78793          	addi	a5,a5,-2
 4004fc4:	00270713          	addi	a4,a4,2
 4004fc8:	fed71f23          	sh	a3,-2(a4)
 4004fcc:	fea798e3          	bne	a5,a0,4004fbc <emovi+0x9c>
 4004fd0:	00008067          	ret

04004fd4 <ecmp>:
 4004fd4:	01255783          	lhu	a5,18(a0)
 4004fd8:	fb010113          	addi	sp,sp,-80
 4004fdc:	04812423          	sw	s0,72(sp)
 4004fe0:	fff7c793          	not	a5,a5
 4004fe4:	04112623          	sw	ra,76(sp)
 4004fe8:	01179713          	slli	a4,a5,0x11
 4004fec:	00058413          	mv	s0,a1
 4004ff0:	00071e63          	bnez	a4,400500c <ecmp+0x38>
 4004ff4:	01250693          	addi	a3,a0,18
 4004ff8:	00050793          	mv	a5,a0
 4004ffc:	0007d703          	lhu	a4,0(a5)
 4005000:	00278793          	addi	a5,a5,2
 4005004:	08071c63          	bnez	a4,400509c <ecmp+0xc8>
 4005008:	fed79ae3          	bne	a5,a3,4004ffc <ecmp+0x28>
 400500c:	01245783          	lhu	a5,18(s0)
 4005010:	fff7c793          	not	a5,a5
 4005014:	01179713          	slli	a4,a5,0x11
 4005018:	06070063          	beqz	a4,4005078 <ecmp+0xa4>
 400501c:	00810593          	addi	a1,sp,8
 4005020:	f01ff0ef          	jal	ra,4004f20 <emovi>
 4005024:	02410593          	addi	a1,sp,36
 4005028:	00040513          	mv	a0,s0
